

Microchip MPLAB XC8 Assembler V2.30 build 20200825195618 
                                                                                               Fri Jan 15 18:52:38 2021

Microchip MPLAB XC8 C Compiler v2.30 (Free license) build 20200825195618 Og1 
     1                           	processor	18F45K22
     2                           	fnconf	rparam,??,?,0
     3                           	pagewidth 120
     4                           	opt	flic
     5                           	psect	idataCOMRAM,global,class=CODE,delta=1,noexec
     6                           	psect	cinit,global,reloc=2,class=CODE,delta=1
     7                           	psect	bssCOMRAM,global,class=COMRAM,space=1,delta=1,lowdata,noexec
     8                           	psect	dataCOMRAM,global,class=COMRAM,space=1,delta=1,lowdata,noexec
     9                           	psect	cstackCOMRAM,global,class=COMRAM,space=1,delta=1,lowdata,noexec
    10                           	psect	text0,global,reloc=2,class=CODE,delta=1
    11                           	psect	text1,global,reloc=2,class=CODE,delta=1
    12                           	psect	text2,global,reloc=2,class=CODE,delta=1
    13                           	psect	text3,global,reloc=2,class=CODE,delta=1
    14                           	psect	text4,global,reloc=2,class=CODE,delta=1
    15                           	psect	text5,global,reloc=2,class=CODE,delta=1
    16                           	psect	text6,global,reloc=2,class=CODE,delta=1
    17                           	psect	text7,global,reloc=2,class=CODE,delta=1
    18                           	psect	text8,global,reloc=2,class=CODE,delta=1
    19                           	psect	text9,global,reloc=2,class=CODE,delta=1,group=2
    20                           	psect	text10,global,reloc=2,class=CODE,delta=1,group=1
    21                           	psect	text11,global,reloc=2,class=CODE,delta=1,group=1
    22                           	psect	text12,global,reloc=2,class=CODE,delta=1
    23                           	psect	text13,global,reloc=2,class=CODE,delta=1,group=1
    24                           	psect	text14,global,reloc=2,class=CODE,delta=1,group=1
    25                           	psect	text15,global,reloc=2,class=CODE,delta=1,group=1
    26                           	psect	text16,global,reloc=2,class=CODE,delta=1,group=1
    27                           	psect	text17,global,reloc=2,class=CODE,delta=1,group=1
    28                           	psect	text18,global,reloc=2,class=CODE,delta=1,group=1
    29                           	psect	intcode,global,reloc=2,class=CODE,delta=1
    30                           	psect	text20,global,reloc=2,class=CODE,delta=1
    31                           	psect	intsave_regs,global,class=BIGRAM,space=1,delta=1,noexec
    32                           	psect	rparam,global,class=COMRAM,space=1,delta=1,noexec
    33                           	psect	temp,global,ovrld,common,class=COMRAM,space=1,delta=1
    34                           	psect	idloc,global,abs,ovrld,class=IDLOC,space=5,delta=1,noexec
    35                           	psect	config,global,abs,ovrld,class=CONFIG,space=4,delta=1,noexec
    36  0000                     
    37                           ; Version 2.20
    38                           ; Generated 05/05/2020 GMT
    39                           ; 
    40                           ; Copyright © 2020, Microchip Technology Inc. and its subsidiaries ("Microchip")
    41                           ; All rights reserved.
    42                           ; 
    43                           ; This software is developed by Microchip Technology Inc. and its subsidiaries ("Microch
      +                          ip").
    44                           ; 
    45                           ; Redistribution and use in source and binary forms, with or without modification, are
    46                           ; permitted provided that the following conditions are met:
    47                           ; 
    48                           ;     1. Redistributions of source code must retain the above copyright notice, this lis
      +                          t of
    49                           ;        conditions and the following disclaimer.
    50                           ; 
    51                           ;     2. Redistributions in binary form must reproduce the above copyright notice, this 
      +                          list
    52                           ;        of conditions and the following disclaimer in the documentation and/or other
    53                           ;        materials provided with the distribution.
    54                           ; 
    55                           ;     3. Microchip's name may not be used to endorse or promote products derived from th
      +                          is
    56                           ;        software without specific prior written permission.
    57                           ; 
    58                           ; THIS SOFTWARE IS PROVIDED BY MICROCHIP "AS IS" AND ANY EXPRESS OR IMPLIED WARRANTIES,
    59                           ; INCLUDING, BUT NOT LIMITED TO, THE IMPLIED WARRANTIES OF MERCHANTABILITY AND FITNESS F
      +                          OR
    60                           ; PURPOSE ARE DISCLAIMED.  IN NO EVENT SHALL MICROCHIP BE LIABLE FOR ANY DIRECT, INDIREC
      +                          T,
    61                           ; INCIDENTAL, SPECIAL, EXEMPLARY, OR CONSEQUENTIAL DAMAGES (INCLUDING BUT NOT LIMITED TO
    62                           ; PROCUREMENT OF SUBSTITUTE GOODS OR SERVICES; LOSS OF USE, DATA OR PROFITS; OR BUSINESS
    63                           ; INTERRUPTION) HOWSOEVER CAUSED AND ON ANY THEORY OF LIABILITY, WHETHER IN CONTRACT, ST
      +                          RICT
    64                           ; LIABILITY, OR TORT (INCLUDING NEGLIGENCE OR OTHERWISE) ARISING IN ANY WAY OUT OF THE U
      +                          SE OF
    65                           ; THIS SOFTWARE, EVEN IF ADVISED OF THE POSSIBILITY OF SUCH DAMAGE.
    66                           ; 
    67                           ; 
    68                           ; Code-generator required, PIC18F45K22 Definitions
    69                           ; 
    70                           ; SFR Addresses
    71  0000                     
    72                           	psect	idataCOMRAM
    73  0016BE                     __pidataCOMRAM:
    74                           	callstack 0
    75                           
    76                           ;initializer for _seg
    77  0016BE  003F               	dw	63
    78  0016C0  0006               	dw	6
    79  0016C2  005B               	dw	91
    80  0016C4  004F               	dw	79
    81  0016C6  0066               	dw	102
    82  0016C8  006D               	dw	109
    83  0016CA  007C               	dw	124
    84  0016CC  0007               	dw	7
    85  0016CE  007F               	dw	127
    86  0016D0  006F               	dw	111
    87                           
    88                           ;initializer for _intervalle
    89  0016D2  0001               	dw	1
    90  0000                     _ANSELBbits	set	3897
    91  0000                     _ANSELAbits	set	3896
    92  0000                     _ANSELD	set	3899
    93  0000                     _ANSELC	set	3898
    94  0000                     _ADRESH	set	4036
    95  0000                     _ADRESL	set	4035
    96  0000                     _PORTC	set	3970
    97  0000                     _PORTBbits	set	3969
    98  0000                     _ADCON2bits	set	4032
    99  0000                     _ADCON1bits	set	4033
   100  0000                     _ADCON0bits	set	4034
   101  0000                     _T0CONbits	set	4053
   102  0000                     _TMR0L	set	4054
   103  0000                     _TMR0H	set	4055
   104  0000                     _INTCON3bits	set	4080
   105  0000                     _INTCON2bits	set	4081
   106  0000                     _RCONbits	set	4048
   107  0000                     _INTCONbits	set	4082
   108  0000                     _OSCCONbits	set	4051
   109  0000                     _PORTDbits	set	3971
   110  0000                     _TRISC	set	3988
   111  0000                     _TRISD	set	3989
   112  0000                     _TRISAbits	set	3986
   113  0000                     _TRISBbits	set	3987
   114                           
   115                           ; #config settings
   116                           
   117                           	psect	cinit
   118  001650                     __pcinit:
   119                           	callstack 0
   120  001650                     start_initialization:
   121                           	callstack 0
   122  001650                     __initialization:
   123                           	callstack 0
   124                           
   125                           ; Initialize objects allocated to COMRAM (22 bytes)
   126                           ; load TBLPTR registers with __pidataCOMRAM
   127  001650  0EBE               	movlw	low __pidataCOMRAM
   128  001652  6EF6               	movwf	tblptrl,c
   129  001654  0E16               	movlw	high __pidataCOMRAM
   130  001656  6EF7               	movwf	tblptrh,c
   131  001658  0E00               	movlw	low (__pidataCOMRAM shr (0+16))
   132  00165A  6EF8               	movwf	tblptru,c
   133  00165C  EE00  F039         	lfsr	0,__pdataCOMRAM
   134  001660  EE10 F016          	lfsr	1,22
   135  001664                     copy_data0:
   136  001664  0009               	tblrd		*+
   137  001666  CFF5 FFEE          	movff	tablat,postinc0
   138  00166A  50E5               	movf	postdec1,w,c
   139  00166C  50E1               	movf	fsr1l,w,c
   140  00166E  E1FA               	bnz	copy_data0
   141                           
   142                           ; Clear objects allocated to COMRAM (4 bytes)
   143  001670  6A52               	clrf	(__pbssCOMRAM+3)& (0+255),c
   144  001672  6A51               	clrf	(__pbssCOMRAM+2)& (0+255),c
   145  001674  6A50               	clrf	(__pbssCOMRAM+1)& (0+255),c
   146  001676  6A4F               	clrf	__pbssCOMRAM& (0+255),c
   147  001678                     end_of_initialization:
   148                           	callstack 0
   149  001678                     __end_of__initialization:
   150                           	callstack 0
   151  001678  9053               	bcf	int$flags,0,c	;clear compiler interrupt flag (level 1)
   152  00167A  9253               	bcf	int$flags,1,c	;clear compiler interrupt flag (level 2)
   153  00167C  0E00               	movlw	low (__Lmediumconst shr (0+16))
   154  00167E  6EF8               	movwf	tblptru,c
   155  001680  0100               	movlb	0
   156  001682  EF63  F006         	goto	_main	;jump to C main() function
   157                           
   158                           	psect	bssCOMRAM
   159  00004F                     __pbssCOMRAM:
   160                           	callstack 0
   161  00004F                     _previous:
   162                           	callstack 0
   163  00004F                     	ds	2
   164  000051                     _k:
   165                           	callstack 0
   166  000051                     	ds	2
   167                           
   168                           	psect	dataCOMRAM
   169  000039                     __pdataCOMRAM:
   170                           	callstack 0
   171  000039                     _seg:
   172                           	callstack 0
   173  000039                     	ds	20
   174  00004D                     _intervalle:
   175                           	callstack 0
   176  00004D                     	ds	2
   177                           
   178                           	psect	cstackCOMRAM
   179  000001                     __pcstackCOMRAM:
   180                           	callstack 0
   181  000001                     ?_channel_conversion:
   182                           	callstack 0
   183  000001                     ?_abs:
   184                           	callstack 0
   185  000001                     ?___fladd:
   186                           	callstack 0
   187  000001                     ?___flmul:
   188                           	callstack 0
   189  000001                     ?___fltol:
   190                           	callstack 0
   191  000001                     abs@a:
   192                           	callstack 0
   193  000001                     ___flge@ff1:
   194                           	callstack 0
   195  000001                     ___fltol@f1:
   196                           	callstack 0
   197  000001                     ___fladd@b:
   198                           	callstack 0
   199  000001                     ___flmul@b:
   200                           	callstack 0
   201                           
   202                           ; 4 bytes @ 0x0
   203  000001                     	ds	2
   204  000003                     ??_channel_conversion:
   205  000003                     ??_abs:
   206                           
   207                           ; 1 bytes @ 0x2
   208  000003                     	ds	2
   209  000005                     ??___fltol:
   210  000005                     ?___awdiv:
   211                           	callstack 0
   212  000005                     ___awdiv@dividend:
   213                           	callstack 0
   214  000005                     ___flge@ff2:
   215                           	callstack 0
   216  000005                     ___fladd@a:
   217                           	callstack 0
   218  000005                     ___flmul@a:
   219                           	callstack 0
   220                           
   221                           ; 4 bytes @ 0x4
   222  000005                     	ds	2
   223  000007                     channel_conversion@resultat:
   224                           	callstack 0
   225  000007                     ___awdiv@divisor:
   226                           	callstack 0
   227                           
   228                           ; 2 bytes @ 0x6
   229  000007                     	ds	2
   230  000009                     ??___fladd:
   231  000009                     ??___flmul:
   232  000009                     ??___flge:
   233  000009                     channel_conversion@channel:
   234                           	callstack 0
   235  000009                     ___awdiv@counter:
   236                           	callstack 0
   237  000009                     ___fltol@sign1:
   238                           	callstack 0
   239                           
   240                           ; 1 bytes @ 0x8
   241  000009                     	ds	1
   242  00000A                     ?___xxtofl:
   243                           	callstack 0
   244  00000A                     ___awdiv@sign:
   245                           	callstack 0
   246  00000A                     ___fltol@exp1:
   247                           	callstack 0
   248  00000A                     ___xxtofl@val:
   249                           	callstack 0
   250                           
   251                           ; 4 bytes @ 0x9
   252  00000A                     	ds	1
   253  00000B                     ___awdiv@quotient:
   254                           	callstack 0
   255                           
   256                           ; 2 bytes @ 0xA
   257  00000B                     	ds	2
   258  00000D                     ?___awmod:
   259                           	callstack 0
   260  00000D                     ___fladd@signs:
   261                           	callstack 0
   262  00000D                     ___flmul@sign:
   263                           	callstack 0
   264  00000D                     ___awmod@dividend:
   265                           	callstack 0
   266                           
   267                           ; 2 bytes @ 0xC
   268  00000D                     	ds	1
   269  00000E                     ??___xxtofl:
   270  00000E                     ___fladd@aexp:
   271                           	callstack 0
   272  00000E                     ___flmul@grs:
   273                           	callstack 0
   274                           
   275                           ; 4 bytes @ 0xD
   276  00000E                     	ds	1
   277  00000F                     ___fladd@bexp:
   278                           	callstack 0
   279  00000F                     ___awmod@divisor:
   280                           	callstack 0
   281                           
   282                           ; 2 bytes @ 0xE
   283  00000F                     	ds	1
   284  000010                     ___fladd@grs:
   285                           	callstack 0
   286                           
   287                           ; 1 bytes @ 0xF
   288  000010                     	ds	1
   289  000011                     ___awmod@counter:
   290                           	callstack 0
   291                           
   292                           ; 1 bytes @ 0x10
   293  000011                     	ds	1
   294  000012                     ___awmod@sign:
   295                           	callstack 0
   296  000012                     ___flmul@aexp:
   297                           	callstack 0
   298  000012                     ___xxtofl@sign:
   299                           	callstack 0
   300                           
   301                           ; 1 bytes @ 0x11
   302  000012                     	ds	1
   303  000013                     ___flmul@bexp:
   304                           	callstack 0
   305  000013                     ___xxtofl@exp:
   306                           	callstack 0
   307  000013                     display_temp@n:
   308                           	callstack 0
   309                           
   310                           ; 2 bytes @ 0x12
   311  000013                     	ds	1
   312  000014                     ___flmul@prod:
   313                           	callstack 0
   314  000014                     ___xxtofl@arg:
   315                           	callstack 0
   316                           
   317                           ; 4 bytes @ 0x13
   318  000014                     	ds	1
   319  000015                     ??_display_temp:
   320                           
   321                           ; 1 bytes @ 0x14
   322  000015                     	ds	2
   323  000017                     display_temp@i:
   324                           	callstack 0
   325                           
   326                           ; 1 bytes @ 0x16
   327  000017                     	ds	1
   328  000018                     ___flmul@temp:
   329                           	callstack 0
   330                           
   331                           ; 2 bytes @ 0x17
   332  000018                     	ds	2
   333  00001A                     ?___fldiv:
   334                           	callstack 0
   335  00001A                     ___fldiv@b:
   336                           	callstack 0
   337                           
   338                           ; 4 bytes @ 0x19
   339  00001A                     	ds	4
   340  00001E                     ___fldiv@a:
   341                           	callstack 0
   342                           
   343                           ; 4 bytes @ 0x1D
   344  00001E                     	ds	4
   345  000022                     ??___fldiv:
   346                           
   347                           ; 1 bytes @ 0x21
   348  000022                     	ds	4
   349  000026                     ___fldiv@rem:
   350                           	callstack 0
   351                           
   352                           ; 4 bytes @ 0x25
   353  000026                     	ds	4
   354  00002A                     ___fldiv@sign:
   355                           	callstack 0
   356                           
   357                           ; 1 bytes @ 0x29
   358  00002A                     	ds	1
   359  00002B                     ___fldiv@new_exp:
   360                           	callstack 0
   361                           
   362                           ; 2 bytes @ 0x2A
   363  00002B                     	ds	2
   364  00002D                     ___fldiv@grs:
   365                           	callstack 0
   366                           
   367                           ; 4 bytes @ 0x2C
   368  00002D                     	ds	4
   369  000031                     ___fldiv@bexp:
   370                           	callstack 0
   371                           
   372                           ; 1 bytes @ 0x30
   373  000031                     	ds	1
   374  000032                     ___fldiv@aexp:
   375                           	callstack 0
   376                           
   377                           ; 1 bytes @ 0x31
   378  000032                     	ds	1
   379  000033                     ??_main:
   380                           
   381                           ; 1 bytes @ 0x32
   382  000033                     	ds	2
   383  000035                     main@i:
   384                           	callstack 0
   385                           
   386                           ; 4 bytes @ 0x34
   387  000035                     	ds	4
   388                           
   389 ;;
   390 ;;Main: autosize = 0, tempsize = 2, incstack = 0, save=0
   391 ;;
   392 ;; *************** function _main *****************
   393 ;; Defined at:
   394 ;;		line 122 in file "main.c"
   395 ;; Parameters:    Size  Location     Type
   396 ;;		None
   397 ;; Auto vars:     Size  Location     Type
   398 ;;  i               4   52[COMRAM] float 
   399 ;; Return value:  Size  Location     Type
   400 ;;                  1    wreg      void 
   401 ;; Registers used:
   402 ;;		wreg, fsr2l, fsr2h, status,2, status,0, prodl, prodh, cstack
   403 ;; Tracked objects:
   404 ;;		On entry : 0/0
   405 ;;		On exit  : 0/0
   406 ;;		Unchanged: 0/0
   407 ;; Data sizes:     COMRAM   BANK0   BANK1   BANK2   BANK3   BANK4   BANK5
   408 ;;      Params:         0       0       0       0       0       0       0
   409 ;;      Locals:         4       0       0       0       0       0       0
   410 ;;      Temps:          2       0       0       0       0       0       0
   411 ;;      Totals:         6       0       0       0       0       0       0
   412 ;;Total ram usage:        6 bytes
   413 ;; Hardware stack levels required when called:    4
   414 ;; This function calls:
   415 ;;		___fladd
   416 ;;		___fldiv
   417 ;;		___flge
   418 ;;		___flmul
   419 ;;		___fltol
   420 ;;		___xxtofl
   421 ;;		_channel_conversion
   422 ;;		_display_temp
   423 ;;		_init_adc
   424 ;;		_init_interrupt
   425 ;;		_init_system
   426 ;;		_init_timer0
   427 ;;		_stopmotor
   428 ;;		_turnleft
   429 ;;		_turnright
   430 ;; This function is called by:
   431 ;;		Startup code after reset
   432 ;; This function uses a non-reentrant model
   433 ;;
   434                           
   435                           	psect	text0
   436  000CC6                     __ptext0:
   437                           	callstack 0
   438  000CC6                     _main:
   439                           	callstack 27
   440  000CC6                     
   441                           ;main.c: 124:     init_system();
   442  000CC6  ECE8  F00A         	call	_init_system	;wreg free
   443  000CCA                     
   444                           ;main.c: 125:     init_interrupt();
   445  000CCA  EC6A  F00B         	call	_init_interrupt	;wreg free
   446  000CCE                     
   447                           ;main.c: 126:     init_timer0();
   448  000CCE  EC53  F00B         	call	_init_timer0	;wreg free
   449                           
   450                           ;main.c: 127:     init_adc();
   451  000CD2  EC43  F00B         	call	_init_adc	;wreg free
   452  000CD6                     l2409:
   453                           
   454                           ;main.c: 131:         if(k-previous>intervalle){
   455  000CD6  504F               	movf	_previous^0,w,c
   456  000CD8  5C51               	subwf	_k^0,w,c
   457  000CDA  6E33               	movwf	??_main^0,c
   458  000CDC  5050               	movf	(_previous+1)^0,w,c
   459  000CDE  5852               	subwfb	(_k+1)^0,w,c
   460  000CE0  6E34               	movwf	(??_main+1)^0,c
   461  000CE2  BE34               	btfsc	(??_main+1)^0,7,c
   462  000CE4  EF7D  F006         	goto	u2471
   463  000CE8  5034               	movf	(??_main+1)^0,w,c
   464  000CEA  E109               	bnz	u2470
   465  000CEC  0E02               	movlw	2
   466  000CEE  5C33               	subwf	??_main^0,w,c
   467  000CF0  A0D8               	btfss	status,0,c
   468  000CF2  EF7D  F006         	goto	u2471
   469  000CF6  EF7F  F006         	goto	u2470
   470  000CFA                     u2471:
   471  000CFA  EF96  F006         	goto	l2415
   472  000CFE                     u2470:
   473  000CFE                     
   474                           ;main.c: 132:             previous = k;
   475  000CFE  C051  F04F         	movff	_k,_previous
   476  000D02  C052  F050         	movff	_k+1,_previous+1
   477  000D06                     
   478                           ;main.c: 133:             PORTBbits.RB3 = ~PORTBbits.RB3;
   479  000D06  B681               	btfsc	129,3,c	;volatile
   480  000D08  EF88  F006         	goto	u2481
   481  000D0C  EF8B  F006         	goto	u2480
   482  000D10                     u2481:
   483  000D10  0E01               	movlw	1
   484  000D12  EF8C  F006         	goto	u2486
   485  000D16                     u2480:
   486  000D16  0E00               	movlw	0
   487  000D18                     u2486:
   488  000D18  0AFF               	xorlw	255
   489  000D1A  6E33               	movwf	??_main^0,c
   490  000D1C  4633               	rlncf	??_main^0,f,c
   491  000D1E  4633               	rlncf	??_main^0,f,c
   492  000D20  4633               	rlncf	??_main^0,f,c
   493  000D22  5081               	movf	129,w,c	;volatile
   494  000D24  1833               	xorwf	??_main^0,w,c
   495  000D26  0BF7               	andlw	-9
   496  000D28  1833               	xorwf	??_main^0,w,c
   497  000D2A  6E81               	movwf	129,c	;volatile
   498  000D2C                     l2415:
   499                           
   500                           ;main.c: 135:         i = channel_conversion(0);
   501  000D2C  0E00               	movlw	0
   502  000D2E  ECA9  F00A         	call	_channel_conversion
   503  000D32  C001  F00A         	movff	?_channel_conversion,___xxtofl@val
   504  000D36  C002  F00B         	movff	?_channel_conversion+1,___xxtofl@val+1
   505  000D3A  6A0C               	clrf	(___xxtofl@val+2)^0,c
   506  000D3C  6A0D               	clrf	(___xxtofl@val+3)^0,c
   507  000D3E  0E00               	movlw	0
   508  000D40  EC7A  F007         	call	___xxtofl
   509  000D44  C00A  F035         	movff	?___xxtofl,main@i
   510  000D48  C00B  F036         	movff	?___xxtofl+1,main@i+1
   511  000D4C  C00C  F037         	movff	?___xxtofl+2,main@i+2
   512  000D50  C00D  F038         	movff	?___xxtofl+3,main@i+3
   513  000D54                     
   514                           ;main.c: 136:         i = i*5/1024;
   515  000D54  0E00               	movlw	0
   516  000D56  6E05               	movwf	___flmul@a^0,c
   517  000D58  0E00               	movlw	0
   518  000D5A  6E06               	movwf	(___flmul@a+1)^0,c
   519  000D5C  0EA0               	movlw	160
   520  000D5E  6E07               	movwf	(___flmul@a+2)^0,c
   521  000D60  0E40               	movlw	64
   522  000D62  6E08               	movwf	(___flmul@a+3)^0,c
   523  000D64  C035  F001         	movff	main@i,___flmul@b
   524  000D68  C036  F002         	movff	main@i+1,___flmul@b+1
   525  000D6C  C037  F003         	movff	main@i+2,___flmul@b+2
   526  000D70  C038  F004         	movff	main@i+3,___flmul@b+3
   527  000D74  EC81  F002         	call	___flmul	;wreg free
   528  000D78  C001  F01A         	movff	?___flmul,___fldiv@b
   529  000D7C  C002  F01B         	movff	?___flmul+1,___fldiv@b+1
   530  000D80  C003  F01C         	movff	?___flmul+2,___fldiv@b+2
   531  000D84  C004  F01D         	movff	?___flmul+3,___fldiv@b+3
   532  000D88  0E00               	movlw	0
   533  000D8A  6E1E               	movwf	___fldiv@a^0,c
   534  000D8C  0E00               	movlw	0
   535  000D8E  6E1F               	movwf	(___fldiv@a+1)^0,c
   536  000D90  0E80               	movlw	128
   537  000D92  6E20               	movwf	(___fldiv@a+2)^0,c
   538  000D94  0E44               	movlw	68
   539  000D96  6E21               	movwf	(___fldiv@a+3)^0,c
   540  000D98  EC96  F004         	call	___fldiv	;wreg free
   541  000D9C  C01A  F035         	movff	?___fldiv,main@i
   542  000DA0  C01B  F036         	movff	?___fldiv+1,main@i+1
   543  000DA4  C01C  F037         	movff	?___fldiv+2,main@i+2
   544  000DA8  C01D  F038         	movff	?___fldiv+3,main@i+3
   545  000DAC                     
   546                           ;main.c: 137:         i=i-3.3;
   547  000DAC  C035  F001         	movff	main@i,___fladd@b
   548  000DB0  C036  F002         	movff	main@i+1,___fladd@b+1
   549  000DB4  C037  F003         	movff	main@i+2,___fladd@b+2
   550  000DB8  C038  F004         	movff	main@i+3,___fladd@b+3
   551  000DBC  0E33               	movlw	51
   552  000DBE  6E05               	movwf	___fladd@a^0,c
   553  000DC0  0E33               	movlw	51
   554  000DC2  6E06               	movwf	(___fladd@a+1)^0,c
   555  000DC4  0E53               	movlw	83
   556  000DC6  6E07               	movwf	(___fladd@a+2)^0,c
   557  000DC8  0EC0               	movlw	192
   558  000DCA  6E08               	movwf	(___fladd@a+3)^0,c
   559  000DCC  EC21  F000         	call	___fladd	;wreg free
   560  000DD0  C001  F035         	movff	?___fladd,main@i
   561  000DD4  C002  F036         	movff	?___fladd+1,main@i+1
   562  000DD8  C003  F037         	movff	?___fladd+2,main@i+2
   563  000DDC  C004  F038         	movff	?___fladd+3,main@i+3
   564  000DE0                     
   565                           ;main.c: 138:         i=i*150/1.5;
   566  000DE0  0E00               	movlw	0
   567  000DE2  6E05               	movwf	___flmul@a^0,c
   568  000DE4  0E00               	movlw	0
   569  000DE6  6E06               	movwf	(___flmul@a+1)^0,c
   570  000DE8  0E16               	movlw	22
   571  000DEA  6E07               	movwf	(___flmul@a+2)^0,c
   572  000DEC  0E43               	movlw	67
   573  000DEE  6E08               	movwf	(___flmul@a+3)^0,c
   574  000DF0  C035  F001         	movff	main@i,___flmul@b
   575  000DF4  C036  F002         	movff	main@i+1,___flmul@b+1
   576  000DF8  C037  F003         	movff	main@i+2,___flmul@b+2
   577  000DFC  C038  F004         	movff	main@i+3,___flmul@b+3
   578  000E00  EC81  F002         	call	___flmul	;wreg free
   579  000E04  C001  F01A         	movff	?___flmul,___fldiv@b
   580  000E08  C002  F01B         	movff	?___flmul+1,___fldiv@b+1
   581  000E0C  C003  F01C         	movff	?___flmul+2,___fldiv@b+2
   582  000E10  C004  F01D         	movff	?___flmul+3,___fldiv@b+3
   583  000E14  0E00               	movlw	0
   584  000E16  6E1E               	movwf	___fldiv@a^0,c
   585  000E18  0E00               	movlw	0
   586  000E1A  6E1F               	movwf	(___fldiv@a+1)^0,c
   587  000E1C  0EC0               	movlw	192
   588  000E1E  6E20               	movwf	(___fldiv@a+2)^0,c
   589  000E20  0E3F               	movlw	63
   590  000E22  6E21               	movwf	(___fldiv@a+3)^0,c
   591  000E24  EC96  F004         	call	___fldiv	;wreg free
   592  000E28  C01A  F035         	movff	?___fldiv,main@i
   593  000E2C  C01B  F036         	movff	?___fldiv+1,main@i+1
   594  000E30  C01C  F037         	movff	?___fldiv+2,main@i+2
   595  000E34  C01D  F038         	movff	?___fldiv+3,main@i+3
   596  000E38                     
   597                           ;main.c: 139:         display_temp(i);
   598  000E38  C035  F001         	movff	main@i,___fltol@f1
   599  000E3C  C036  F002         	movff	main@i+1,___fltol@f1+1
   600  000E40  C037  F003         	movff	main@i+2,___fltol@f1+2
   601  000E44  C038  F004         	movff	main@i+3,___fltol@f1+3
   602  000E48  ECEA  F008         	call	___fltol	;wreg free
   603  000E4C  C001  F013         	movff	?___fltol,display_temp@n
   604  000E50  C002  F014         	movff	?___fltol+1,display_temp@n+1
   605  000E54  EC54  F008         	call	_display_temp	;wreg free
   606  000E58                     
   607                           ;main.c: 140:         if(i>60){
   608  000E58  0E00               	movlw	0
   609  000E5A  6E01               	movwf	___flge@ff1^0,c
   610  000E5C  0E00               	movlw	0
   611  000E5E  6E02               	movwf	(___flge@ff1+1)^0,c
   612  000E60  0E70               	movlw	112
   613  000E62  6E03               	movwf	(___flge@ff1+2)^0,c
   614  000E64  0E42               	movlw	66
   615  000E66  6E04               	movwf	(___flge@ff1+3)^0,c
   616  000E68  C035  F005         	movff	main@i,___flge@ff2
   617  000E6C  C036  F006         	movff	main@i+1,___flge@ff2+1
   618  000E70  C037  F007         	movff	main@i+2,___flge@ff2+2
   619  000E74  C038  F008         	movff	main@i+3,___flge@ff2+3
   620  000E78  EC6D  F009         	call	___flge	;wreg free
   621  000E7C  B0D8               	btfsc	status,0,c
   622  000E7E  EF43  F007         	goto	u2491
   623  000E82  EF45  F007         	goto	u2490
   624  000E86                     u2491:
   625  000E86  EF48  F007         	goto	l2431
   626  000E8A                     u2490:
   627  000E8A                     
   628                           ;main.c: 141:             stopmotor();
   629  000E8A  EC77  F00B         	call	_stopmotor	;wreg free
   630  000E8E                     
   631                           ;main.c: 142:             PORTBbits.RB4 = 1;
   632  000E8E  8881               	bsf	129,4,c	;volatile
   633  000E90                     l2431:
   634                           
   635                           ;main.c: 144:         if(i<60){
   636  000E90  C035  F001         	movff	main@i,___flge@ff1
   637  000E94  C036  F002         	movff	main@i+1,___flge@ff1+1
   638  000E98  C037  F003         	movff	main@i+2,___flge@ff1+2
   639  000E9C  C038  F004         	movff	main@i+3,___flge@ff1+3
   640  000EA0  0E00               	movlw	0
   641  000EA2  6E05               	movwf	___flge@ff2^0,c
   642  000EA4  0E00               	movlw	0
   643  000EA6  6E06               	movwf	(___flge@ff2+1)^0,c
   644  000EA8  0E70               	movlw	112
   645  000EAA  6E07               	movwf	(___flge@ff2+2)^0,c
   646  000EAC  0E42               	movlw	66
   647  000EAE  6E08               	movwf	(___flge@ff2+3)^0,c
   648  000EB0  EC6D  F009         	call	___flge	;wreg free
   649  000EB4  B0D8               	btfsc	status,0,c
   650  000EB6  EF5F  F007         	goto	u2501
   651  000EBA  EF61  F007         	goto	u2500
   652  000EBE                     u2501:
   653  000EBE  EF62  F007         	goto	l100
   654  000EC2                     u2500:
   655  000EC2                     
   656                           ;main.c: 145:                     PORTBbits.RB4 = 0;
   657  000EC2  9881               	bcf	129,4,c	;volatile
   658  000EC4                     l100:
   659                           
   660                           ;main.c: 147:         if (PORTBbits.RB0)
   661  000EC4  A081               	btfss	129,0,c	;volatile
   662  000EC6  EF67  F007         	goto	u2511
   663  000ECA  EF69  F007         	goto	u2510
   664  000ECE                     u2511:
   665  000ECE  EF6D  F007         	goto	l101
   666  000ED2                     u2510:
   667  000ED2                     
   668                           ;main.c: 148:             turnleft();
   669  000ED2  EC74  F00B         	call	_turnleft	;wreg free
   670  000ED6  EF6B  F006         	goto	l2409
   671  000EDA                     l101:
   672  000EDA  A281               	btfss	129,1,c	;volatile
   673  000EDC  EF72  F007         	goto	u2521
   674  000EE0  EF74  F007         	goto	u2520
   675  000EE4                     u2521:
   676  000EE4  EF6B  F006         	goto	l2409
   677  000EE8                     u2520:
   678  000EE8                     
   679                           ;main.c: 150:             turnright();
   680  000EE8  EC71  F00B         	call	_turnright	;wreg free
   681  000EEC  EF6B  F006         	goto	l2409
   682  000EF0  EF1F  F000         	goto	start
   683  000EF4                     __end_of_main:
   684                           	callstack 0
   685                           
   686 ;; *************** function _turnright *****************
   687 ;; Defined at:
   688 ;;		line 59 in file "main.c"
   689 ;; Parameters:    Size  Location     Type
   690 ;;		None
   691 ;; Auto vars:     Size  Location     Type
   692 ;;		None
   693 ;; Return value:  Size  Location     Type
   694 ;;                  1    wreg      void 
   695 ;; Registers used:
   696 ;;		None
   697 ;; Tracked objects:
   698 ;;		On entry : 0/0
   699 ;;		On exit  : 0/0
   700 ;;		Unchanged: 0/0
   701 ;; Data sizes:     COMRAM   BANK0   BANK1   BANK2   BANK3   BANK4   BANK5
   702 ;;      Params:         0       0       0       0       0       0       0
   703 ;;      Locals:         0       0       0       0       0       0       0
   704 ;;      Temps:          0       0       0       0       0       0       0
   705 ;;      Totals:         0       0       0       0       0       0       0
   706 ;;Total ram usage:        0 bytes
   707 ;; Hardware stack levels used:    1
   708 ;; Hardware stack levels required when called:    2
   709 ;; This function calls:
   710 ;;		Nothing
   711 ;; This function is called by:
   712 ;;		_main
   713 ;; This function uses a non-reentrant model
   714 ;;
   715                           
   716                           	psect	text1
   717  0016E2                     __ptext1:
   718                           	callstack 0
   719  0016E2                     _turnright:
   720                           	callstack 28
   721  0016E2                     
   722                           ;main.c: 60:     PORTDbits.RD0 = 0;
   723  0016E2  9083               	bcf	131,0,c	;volatile
   724                           
   725                           ;main.c: 61:     PORTDbits.RD1 = 1;
   726  0016E4  8283               	bsf	131,1,c	;volatile
   727  0016E6  0012               	return		;funcret
   728  0016E8                     __end_of_turnright:
   729                           	callstack 0
   730                           
   731 ;; *************** function _turnleft *****************
   732 ;; Defined at:
   733 ;;		line 54 in file "main.c"
   734 ;; Parameters:    Size  Location     Type
   735 ;;		None
   736 ;; Auto vars:     Size  Location     Type
   737 ;;		None
   738 ;; Return value:  Size  Location     Type
   739 ;;                  1    wreg      void 
   740 ;; Registers used:
   741 ;;		None
   742 ;; Tracked objects:
   743 ;;		On entry : 0/0
   744 ;;		On exit  : 0/0
   745 ;;		Unchanged: 0/0
   746 ;; Data sizes:     COMRAM   BANK0   BANK1   BANK2   BANK3   BANK4   BANK5
   747 ;;      Params:         0       0       0       0       0       0       0
   748 ;;      Locals:         0       0       0       0       0       0       0
   749 ;;      Temps:          0       0       0       0       0       0       0
   750 ;;      Totals:         0       0       0       0       0       0       0
   751 ;;Total ram usage:        0 bytes
   752 ;; Hardware stack levels used:    1
   753 ;; Hardware stack levels required when called:    2
   754 ;; This function calls:
   755 ;;		Nothing
   756 ;; This function is called by:
   757 ;;		_main
   758 ;; This function uses a non-reentrant model
   759 ;;
   760                           
   761                           	psect	text2
   762  0016E8                     __ptext2:
   763                           	callstack 0
   764  0016E8                     _turnleft:
   765                           	callstack 28
   766  0016E8                     
   767                           ;main.c: 55:     PORTDbits.RD0 = 1;
   768  0016E8  8083               	bsf	131,0,c	;volatile
   769                           
   770                           ;main.c: 56:     PORTDbits.RD1 = 0;
   771  0016EA  9283               	bcf	131,1,c	;volatile
   772  0016EC  0012               	return		;funcret
   773  0016EE                     __end_of_turnleft:
   774                           	callstack 0
   775                           
   776 ;; *************** function _stopmotor *****************
   777 ;; Defined at:
   778 ;;		line 64 in file "main.c"
   779 ;; Parameters:    Size  Location     Type
   780 ;;		None
   781 ;; Auto vars:     Size  Location     Type
   782 ;;		None
   783 ;; Return value:  Size  Location     Type
   784 ;;                  1    wreg      void 
   785 ;; Registers used:
   786 ;;		None
   787 ;; Tracked objects:
   788 ;;		On entry : 0/0
   789 ;;		On exit  : 0/0
   790 ;;		Unchanged: 0/0
   791 ;; Data sizes:     COMRAM   BANK0   BANK1   BANK2   BANK3   BANK4   BANK5
   792 ;;      Params:         0       0       0       0       0       0       0
   793 ;;      Locals:         0       0       0       0       0       0       0
   794 ;;      Temps:          0       0       0       0       0       0       0
   795 ;;      Totals:         0       0       0       0       0       0       0
   796 ;;Total ram usage:        0 bytes
   797 ;; Hardware stack levels used:    1
   798 ;; Hardware stack levels required when called:    2
   799 ;; This function calls:
   800 ;;		Nothing
   801 ;; This function is called by:
   802 ;;		_main
   803 ;; This function uses a non-reentrant model
   804 ;;
   805                           
   806                           	psect	text3
   807  0016EE                     __ptext3:
   808                           	callstack 0
   809  0016EE                     _stopmotor:
   810                           	callstack 28
   811  0016EE                     
   812                           ;main.c: 65:     PORTDbits.RD0 = 0;
   813  0016EE  9083               	bcf	131,0,c	;volatile
   814                           
   815                           ;main.c: 66:     PORTDbits.RD1 = 0;
   816  0016F0  9283               	bcf	131,1,c	;volatile
   817  0016F2  0012               	return		;funcret
   818  0016F4                     __end_of_stopmotor:
   819                           	callstack 0
   820                           
   821 ;; *************** function _init_timer0 *****************
   822 ;; Defined at:
   823 ;;		line 92 in file "main.c"
   824 ;; Parameters:    Size  Location     Type
   825 ;;		None
   826 ;; Auto vars:     Size  Location     Type
   827 ;;		None
   828 ;; Return value:  Size  Location     Type
   829 ;;                  1    wreg      void 
   830 ;; Registers used:
   831 ;;		None
   832 ;; Tracked objects:
   833 ;;		On entry : 0/0
   834 ;;		On exit  : 0/0
   835 ;;		Unchanged: 0/0
   836 ;; Data sizes:     COMRAM   BANK0   BANK1   BANK2   BANK3   BANK4   BANK5
   837 ;;      Params:         0       0       0       0       0       0       0
   838 ;;      Locals:         0       0       0       0       0       0       0
   839 ;;      Temps:          0       0       0       0       0       0       0
   840 ;;      Totals:         0       0       0       0       0       0       0
   841 ;;Total ram usage:        0 bytes
   842 ;; Hardware stack levels used:    1
   843 ;; Hardware stack levels required when called:    2
   844 ;; This function calls:
   845 ;;		Nothing
   846 ;; This function is called by:
   847 ;;		_main
   848 ;; This function uses a non-reentrant model
   849 ;;
   850                           
   851                           	psect	text4
   852  0016A6                     __ptext4:
   853                           	callstack 0
   854  0016A6                     _init_timer0:
   855                           	callstack 28
   856  0016A6                     
   857                           ;main.c: 93:     T0CONbits.T08BIT = 0;
   858  0016A6  9CD5               	bcf	213,6,c	;volatile
   859                           
   860                           ;main.c: 94:     T0CONbits.T0CS = 0;
   861  0016A8  9AD5               	bcf	213,5,c	;volatile
   862                           
   863                           ;main.c: 95:     T0CONbits.T0SE = 0;
   864  0016AA  98D5               	bcf	213,4,c	;volatile
   865                           
   866                           ;main.c: 96:     T0CONbits.PSA = 0;
   867  0016AC  96D5               	bcf	213,3,c	;volatile
   868                           
   869                           ;main.c: 97:     T0CONbits.T0PS0 = 1;
   870  0016AE  80D5               	bsf	213,0,c	;volatile
   871                           
   872                           ;main.c: 98:     T0CONbits.T0PS1 = 1;
   873  0016B0  82D5               	bsf	213,1,c	;volatile
   874                           
   875                           ;main.c: 99:     T0CONbits.T0PS2 = 1;
   876  0016B2  84D5               	bsf	213,2,c	;volatile
   877                           
   878                           ;main.c: 100:     T0CONbits.TMR0ON = 0;
   879  0016B4  9ED5               	bcf	213,7,c	;volatile
   880                           
   881                           ;main.c: 101:     INTCONbits.TMR0IE = 1;
   882  0016B6  8AF2               	bsf	242,5,c	;volatile
   883                           
   884                           ;main.c: 102:     INTCONbits.TMR0IF = 0;
   885  0016B8  94F2               	bcf	242,2,c	;volatile
   886                           
   887                           ;main.c: 103:     T0CONbits.TMR0ON =1;
   888  0016BA  8ED5               	bsf	213,7,c	;volatile
   889  0016BC  0012               	return		;funcret
   890  0016BE                     __end_of_init_timer0:
   891                           	callstack 0
   892                           
   893 ;; *************** function _init_system *****************
   894 ;; Defined at:
   895 ;;		line 29 in file "main.c"
   896 ;; Parameters:    Size  Location     Type
   897 ;;		None
   898 ;; Auto vars:     Size  Location     Type
   899 ;;		None
   900 ;; Return value:  Size  Location     Type
   901 ;;                  1    wreg      void 
   902 ;; Registers used:
   903 ;;		wreg, status,2
   904 ;; Tracked objects:
   905 ;;		On entry : 0/0
   906 ;;		On exit  : 0/0
   907 ;;		Unchanged: 0/0
   908 ;; Data sizes:     COMRAM   BANK0   BANK1   BANK2   BANK3   BANK4   BANK5
   909 ;;      Params:         0       0       0       0       0       0       0
   910 ;;      Locals:         0       0       0       0       0       0       0
   911 ;;      Temps:          0       0       0       0       0       0       0
   912 ;;      Totals:         0       0       0       0       0       0       0
   913 ;;Total ram usage:        0 bytes
   914 ;; Hardware stack levels used:    1
   915 ;; Hardware stack levels required when called:    2
   916 ;; This function calls:
   917 ;;		Nothing
   918 ;; This function is called by:
   919 ;;		_main
   920 ;; This function uses a non-reentrant model
   921 ;;
   922                           
   923                           	psect	text5
   924  0015D0                     __ptext5:
   925                           	callstack 0
   926  0015D0                     _init_system:
   927                           	callstack 28
   928  0015D0                     
   929                           ;main.c: 30:     TRISBbits.RB0 = 1;
   930  0015D0  8093               	bsf	147,0,c	;volatile
   931                           
   932                           ;main.c: 31:     TRISBbits.RB1 = 1;
   933  0015D2  8293               	bsf	147,1,c	;volatile
   934                           
   935                           ;main.c: 32:     TRISBbits.RB2 = 1;
   936  0015D4  8493               	bsf	147,2,c	;volatile
   937                           
   938                           ;main.c: 33:     TRISBbits.RB3 = 0;
   939  0015D6  9693               	bcf	147,3,c	;volatile
   940                           
   941                           ;main.c: 34:     TRISBbits.RB4 = 0;
   942  0015D8  9893               	bcf	147,4,c	;volatile
   943                           
   944                           ;main.c: 35:     TRISAbits.RA0 = 1;
   945  0015DA  8092               	bsf	146,0,c	;volatile
   946  0015DC                     
   947                           ;main.c: 36:     TRISD = 0;
   948  0015DC  0E00               	movlw	0
   949  0015DE  6E95               	movwf	149,c	;volatile
   950                           
   951                           ;main.c: 37:     TRISC = 0;
   952  0015E0  0E00               	movlw	0
   953  0015E2  6E94               	movwf	148,c	;volatile
   954                           
   955                           ;main.c: 38:     ANSELC = 0;
   956  0015E4  0E00               	movlw	0
   957  0015E6  010F               	movlb	15	; () banked
   958  0015E8  6F3A               	movwf	58,b	;volatile
   959                           
   960                           ;main.c: 39:     ANSELD = 0;
   961  0015EA  0E00               	movlw	0
   962  0015EC  6F3B               	movwf	59,b	;volatile
   963  0015EE                     
   964                           ; BSR set to: 15
   965                           ;main.c: 40:     PORTDbits.RD2 = 1;
   966  0015EE  8483               	bsf	131,2,c	;volatile
   967  0015F0                     
   968                           ; BSR set to: 15
   969                           ;main.c: 41:     PORTDbits.RD3 = 1;
   970  0015F0  8683               	bsf	131,3,c	;volatile
   971  0015F2                     
   972                           ; BSR set to: 15
   973                           ;main.c: 42:     PORTDbits.RD4 = 1;
   974  0015F2  8883               	bsf	131,4,c	;volatile
   975  0015F4                     
   976                           ; BSR set to: 15
   977                           ;main.c: 43:     PORTDbits.RD5 = 1;
   978  0015F4  8A83               	bsf	131,5,c	;volatile
   979  0015F6                     
   980                           ; BSR set to: 15
   981                           ;main.c: 44:     ANSELAbits.ANSA0 =1;
   982  0015F6  8138               	bsf	56,0,b	;volatile
   983  0015F8                     
   984                           ; BSR set to: 15
   985                           ;main.c: 45:     ANSELBbits.ANSB0 = 0;
   986  0015F8  9139               	bcf	57,0,b	;volatile
   987  0015FA                     
   988                           ; BSR set to: 15
   989                           ;main.c: 46:     ANSELBbits.ANSB1 = 0;
   990  0015FA  9339               	bcf	57,1,b	;volatile
   991  0015FC                     
   992                           ; BSR set to: 15
   993                           ;main.c: 47:     ANSELBbits.ANSB2 = 0;
   994  0015FC  9539               	bcf	57,2,b	;volatile
   995  0015FE                     
   996                           ; BSR set to: 15
   997                           ;main.c: 48:     ANSELBbits.ANSB3 = 0;
   998  0015FE  9739               	bcf	57,3,b	;volatile
   999  001600                     
  1000                           ; BSR set to: 15
  1001                           ;main.c: 49:     ANSELBbits.ANSB4 = 0;
  1002  001600  9939               	bcf	57,4,b	;volatile
  1003                           
  1004                           ;main.c: 50:     OSCCONbits.IRCF = 0b110;
  1005  001602  50D3               	movf	211,w,c	;volatile
  1006  001604  0B8F               	andlw	-113
  1007  001606  0960               	iorlw	96
  1008  001608  6ED3               	movwf	211,c	;volatile
  1009                           
  1010                           ;main.c: 51:     OSCCONbits.SCS = 0b00;
  1011  00160A  0EFC               	movlw	-4
  1012  00160C  16D3               	andwf	211,f,c	;volatile
  1013  00160E                     
  1014                           ; BSR set to: 15
  1015  00160E  0012               	return		;funcret
  1016  001610                     __end_of_init_system:
  1017                           	callstack 0
  1018                           
  1019 ;; *************** function _init_interrupt *****************
  1020 ;; Defined at:
  1021 ;;		line 69 in file "main.c"
  1022 ;; Parameters:    Size  Location     Type
  1023 ;;		None
  1024 ;; Auto vars:     Size  Location     Type
  1025 ;;		None
  1026 ;; Return value:  Size  Location     Type
  1027 ;;                  1    wreg      void 
  1028 ;; Registers used:
  1029 ;;		None
  1030 ;; Tracked objects:
  1031 ;;		On entry : 0/0
  1032 ;;		On exit  : 0/0
  1033 ;;		Unchanged: 0/0
  1034 ;; Data sizes:     COMRAM   BANK0   BANK1   BANK2   BANK3   BANK4   BANK5
  1035 ;;      Params:         0       0       0       0       0       0       0
  1036 ;;      Locals:         0       0       0       0       0       0       0
  1037 ;;      Temps:          0       0       0       0       0       0       0
  1038 ;;      Totals:         0       0       0       0       0       0       0
  1039 ;;Total ram usage:        0 bytes
  1040 ;; Hardware stack levels used:    1
  1041 ;; Hardware stack levels required when called:    2
  1042 ;; This function calls:
  1043 ;;		Nothing
  1044 ;; This function is called by:
  1045 ;;		_main
  1046 ;; This function uses a non-reentrant model
  1047 ;;
  1048                           
  1049                           	psect	text6
  1050  0016D4                     __ptext6:
  1051                           	callstack 0
  1052  0016D4                     _init_interrupt:
  1053                           	callstack 28
  1054  0016D4                     
  1055                           ;main.c: 70:     INTCONbits.GIE =1;
  1056  0016D4  8EF2               	bsf	242,7,c	;volatile
  1057                           
  1058                           ;main.c: 71:     INTCONbits.PEIE =1;
  1059  0016D6  8CF2               	bsf	242,6,c	;volatile
  1060                           
  1061                           ;main.c: 72:     RCONbits.IPEN =0;
  1062  0016D8  9ED0               	bcf	208,7,c	;volatile
  1063                           
  1064                           ;main.c: 73:     INTCON2bits.INTEDG2 =1;
  1065  0016DA  88F1               	bsf	241,4,c	;volatile
  1066                           
  1067                           ;main.c: 74:     INTCON3bits.INT2IE =1;
  1068  0016DC  88F0               	bsf	240,4,c	;volatile
  1069                           
  1070                           ;main.c: 75:     INTCON3bits.INT2IF =0;
  1071  0016DE  92F0               	bcf	240,1,c	;volatile
  1072  0016E0  0012               	return		;funcret
  1073  0016E2                     __end_of_init_interrupt:
  1074                           	callstack 0
  1075                           
  1076 ;; *************** function _init_adc *****************
  1077 ;; Defined at:
  1078 ;;		line 107 in file "main.c"
  1079 ;; Parameters:    Size  Location     Type
  1080 ;;		None
  1081 ;; Auto vars:     Size  Location     Type
  1082 ;;		None
  1083 ;; Return value:  Size  Location     Type
  1084 ;;                  1    wreg      void 
  1085 ;; Registers used:
  1086 ;;		wreg, status,2
  1087 ;; Tracked objects:
  1088 ;;		On entry : 0/0
  1089 ;;		On exit  : 0/0
  1090 ;;		Unchanged: 0/0
  1091 ;; Data sizes:     COMRAM   BANK0   BANK1   BANK2   BANK3   BANK4   BANK5
  1092 ;;      Params:         0       0       0       0       0       0       0
  1093 ;;      Locals:         0       0       0       0       0       0       0
  1094 ;;      Temps:          0       0       0       0       0       0       0
  1095 ;;      Totals:         0       0       0       0       0       0       0
  1096 ;;Total ram usage:        0 bytes
  1097 ;; Hardware stack levels used:    1
  1098 ;; Hardware stack levels required when called:    2
  1099 ;; This function calls:
  1100 ;;		Nothing
  1101 ;; This function is called by:
  1102 ;;		_main
  1103 ;; This function uses a non-reentrant model
  1104 ;;
  1105                           
  1106                           	psect	text7
  1107  001686                     __ptext7:
  1108                           	callstack 0
  1109  001686                     _init_adc:
  1110                           	callstack 28
  1111  001686                     
  1112                           ;main.c: 108:     ADCON0bits.ADON = 1;
  1113  001686  80C2               	bsf	194,0,c	;volatile
  1114                           
  1115                           ;main.c: 109:     ADCON1bits.TRIGSEL = 1;
  1116  001688  8EC1               	bsf	193,7,c	;volatile
  1117  00168A                     
  1118                           ;main.c: 110:     ADCON1bits.PVCFG = 0b00;
  1119  00168A  0EF3               	movlw	-13
  1120  00168C  16C1               	andwf	193,f,c	;volatile
  1121                           
  1122                           ;main.c: 111:     ADCON1bits.NVCFG = 0b00;
  1123  00168E  0EFC               	movlw	-4
  1124  001690  16C1               	andwf	193,f,c	;volatile
  1125  001692                     
  1126                           ;main.c: 112:     ADCON2bits.ADFM = 1;
  1127  001692  8EC0               	bsf	192,7,c	;volatile
  1128                           
  1129                           ;main.c: 113:     ADCON2bits.ADCS = 0b001;
  1130  001694  50C0               	movf	192,w,c	;volatile
  1131  001696  0BF8               	andlw	-8
  1132  001698  0901               	iorlw	1
  1133  00169A  6EC0               	movwf	192,c	;volatile
  1134                           
  1135                           ;main.c: 114:     ADCON2bits.ACQT = 0b010;
  1136  00169C  50C0               	movf	192,w,c	;volatile
  1137  00169E  0BC7               	andlw	-57
  1138  0016A0  0910               	iorlw	16
  1139  0016A2  6EC0               	movwf	192,c	;volatile
  1140  0016A4  0012               	return		;funcret
  1141  0016A6                     __end_of_init_adc:
  1142                           	callstack 0
  1143                           
  1144 ;; *************** function _display_temp *****************
  1145 ;; Defined at:
  1146 ;;		line 160 in file "main.c"
  1147 ;; Parameters:    Size  Location     Type
  1148 ;;  n               2   18[COMRAM] int 
  1149 ;; Auto vars:     Size  Location     Type
  1150 ;;  i               1   22[COMRAM] unsigned char 
  1151 ;; Return value:  Size  Location     Type
  1152 ;;                  1    wreg      void 
  1153 ;; Registers used:
  1154 ;;		wreg, fsr2l, fsr2h, status,2, status,0, cstack
  1155 ;; Tracked objects:
  1156 ;;		On entry : 0/0
  1157 ;;		On exit  : 0/0
  1158 ;;		Unchanged: 0/0
  1159 ;; Data sizes:     COMRAM   BANK0   BANK1   BANK2   BANK3   BANK4   BANK5
  1160 ;;      Params:         2       0       0       0       0       0       0
  1161 ;;      Locals:         1       0       0       0       0       0       0
  1162 ;;      Temps:          2       0       0       0       0       0       0
  1163 ;;      Totals:         5       0       0       0       0       0       0
  1164 ;;Total ram usage:        5 bytes
  1165 ;; Hardware stack levels used:    1
  1166 ;; Hardware stack levels required when called:    3
  1167 ;; This function calls:
  1168 ;;		___awdiv
  1169 ;;		___awmod
  1170 ;;		_abs
  1171 ;; This function is called by:
  1172 ;;		_main
  1173 ;; This function uses a non-reentrant model
  1174 ;;
  1175                           
  1176                           	psect	text8
  1177  0010A8                     __ptext8:
  1178                           	callstack 0
  1179  0010A8                     _display_temp:
  1180                           	callstack 27
  1181  0010A8                     
  1182                           ;main.c: 161:     uint8_t i;;main.c: 162:     for(i=0;i<4;i++){
  1183  0010A8  0E00               	movlw	0
  1184  0010AA  6E17               	movwf	display_temp@i^0,c
  1185  0010AC  EFC3  F008         	goto	l1811
  1186  0010B0                     l115:
  1187                           
  1188                           ;main.c: 165:                     PORTDbits.RD2 = 1;
  1189  0010B0  8483               	bsf	131,2,c	;volatile
  1190                           
  1191                           ;main.c: 166:                     PORTDbits.RD3 = 1;
  1192  0010B2  8683               	bsf	131,3,c	;volatile
  1193                           
  1194                           ;main.c: 167:                     PORTDbits.RD4 = 1;
  1195  0010B4  8883               	bsf	131,4,c	;volatile
  1196                           
  1197                           ;main.c: 168:                     PORTDbits.RD5 = 0;
  1198  0010B6  9A83               	bcf	131,5,c	;volatile
  1199  0010B8                     
  1200                           ;main.c: 169:                     PORTC = 0b01100011;
  1201  0010B8  0E63               	movlw	99
  1202  0010BA  6E82               	movwf	130,c	;volatile
  1203  0010BC                     l1791:
  1204                           
  1205                           ;main.c: 170:                     _delay((unsigned long)((15)*(8000000/4000.0)));
  1206  0010BC  0E27               	movlw	39
  1207  0010BE  6E15               	movwf	??_display_temp^0,c
  1208  0010C0  0EF5               	movlw	245
  1209  0010C2                     u2537:
  1210  0010C2  2EE8               	decfsz	wreg,f,c
  1211  0010C4  D7FE               	bra	u2537
  1212  0010C6  2E15               	decfsz	??_display_temp^0,f,c
  1213  0010C8  D7FC               	bra	u2537
  1214  0010CA  F000               	nop	
  1215                           
  1216                           ;main.c: 171:                     break;
  1217  0010CC  EFE0  F008         	goto	l1813
  1218  0010D0                     l117:
  1219                           
  1220                           ;main.c: 173:                     PORTDbits.RD2 = 1;
  1221  0010D0  8483               	bsf	131,2,c	;volatile
  1222                           
  1223                           ;main.c: 174:                     PORTDbits.RD3 = 1;
  1224  0010D2  8683               	bsf	131,3,c	;volatile
  1225                           
  1226                           ;main.c: 175:                     PORTDbits.RD4 = 0;
  1227  0010D4  9883               	bcf	131,4,c	;volatile
  1228                           
  1229                           ;main.c: 176:                     PORTDbits.RD5 = 1;
  1230  0010D6  8A83               	bsf	131,5,c	;volatile
  1231  0010D8                     
  1232                           ;main.c: 177:                     PORTC = seg[abs(n)%10];
  1233  0010D8  C013  F001         	movff	display_temp@n,abs@a
  1234  0010DC  C014  F002         	movff	display_temp@n+1,abs@a+1
  1235  0010E0  EC08  F00B         	call	_abs	;wreg free
  1236  0010E4  C001  F00D         	movff	?_abs,___awmod@dividend
  1237  0010E8  C002  F00E         	movff	?_abs+1,___awmod@dividend+1
  1238  0010EC  0E00               	movlw	0
  1239  0010EE  6E10               	movwf	(___awmod@divisor+1)^0,c
  1240  0010F0  0E0A               	movlw	10
  1241  0010F2  6E0F               	movwf	___awmod@divisor^0,c
  1242  0010F4  EC51  F00A         	call	___awmod	;wreg free
  1243  0010F8  90D8               	bcf	status,0,c
  1244  0010FA  360D               	rlcf	?___awmod^0,f,c
  1245  0010FC  360E               	rlcf	(?___awmod+1)^0,f,c
  1246  0010FE  0E39               	movlw	low _seg
  1247  001100  240D               	addwf	?___awmod^0,w,c
  1248  001102  6ED9               	movwf	fsr2l,c
  1249  001104  0E00               	movlw	high _seg
  1250  001106  200E               	addwfc	(?___awmod+1)^0,w,c
  1251  001108  6EDA               	movwf	fsr2h,c
  1252  00110A  50DF               	movf	indf2,w,c
  1253  00110C  6E82               	movwf	130,c	;volatile
  1254  00110E  EF5E  F008         	goto	l1791
  1255  001112                     l118:
  1256                           
  1257                           ;main.c: 181:                     PORTDbits.RD2 = 1;
  1258  001112  8483               	bsf	131,2,c	;volatile
  1259                           
  1260                           ;main.c: 182:                     PORTDbits.RD3 = 0;
  1261  001114  9683               	bcf	131,3,c	;volatile
  1262                           
  1263                           ;main.c: 183:                     PORTDbits.RD4 = 1;
  1264  001116  8883               	bsf	131,4,c	;volatile
  1265                           
  1266                           ;main.c: 184:                     PORTDbits.RD5 = 1;
  1267  001118  8A83               	bsf	131,5,c	;volatile
  1268  00111A                     
  1269                           ;main.c: 185:                     PORTC = seg[(abs(n)/10)%10];
  1270  00111A  0E00               	movlw	0
  1271  00111C  6E08               	movwf	(___awdiv@divisor+1)^0,c
  1272  00111E  0E0A               	movlw	10
  1273  001120  6E07               	movwf	___awdiv@divisor^0,c
  1274  001122  C013  F001         	movff	display_temp@n,abs@a
  1275  001126  C014  F002         	movff	display_temp@n+1,abs@a+1
  1276  00112A  EC08  F00B         	call	_abs	;wreg free
  1277  00112E  C001  F005         	movff	?_abs,___awdiv@dividend
  1278  001132  C002  F006         	movff	?_abs+1,___awdiv@dividend+1
  1279  001136  ECEF  F009         	call	___awdiv	;wreg free
  1280  00113A  C005  F00D         	movff	?___awdiv,___awmod@dividend
  1281  00113E  C006  F00E         	movff	?___awdiv+1,___awmod@dividend+1
  1282  001142  0E00               	movlw	0
  1283  001144  6E10               	movwf	(___awmod@divisor+1)^0,c
  1284  001146  0E0A               	movlw	10
  1285  001148  6E0F               	movwf	___awmod@divisor^0,c
  1286  00114A  EC51  F00A         	call	___awmod	;wreg free
  1287  00114E  90D8               	bcf	status,0,c
  1288  001150  360D               	rlcf	?___awmod^0,f,c
  1289  001152  360E               	rlcf	(?___awmod+1)^0,f,c
  1290  001154  0E39               	movlw	low _seg
  1291  001156  240D               	addwf	?___awmod^0,w,c
  1292  001158  6ED9               	movwf	fsr2l,c
  1293  00115A  0E00               	movlw	high _seg
  1294  00115C  200E               	addwfc	(?___awmod+1)^0,w,c
  1295  00115E  6EDA               	movwf	fsr2h,c
  1296  001160  50DF               	movf	indf2,w,c
  1297  001162  6E82               	movwf	130,c	;volatile
  1298  001164  EF5E  F008         	goto	l1791
  1299  001168                     l1801:
  1300                           
  1301                           ;main.c: 189:                         if(n<0){
  1302  001168  BE14               	btfsc	(display_temp@n+1)^0,7,c
  1303  00116A  EFBB  F008         	goto	u1420
  1304  00116E  EFB9  F008         	goto	u1421
  1305  001172                     u1421:
  1306  001172  EF5E  F008         	goto	l1791
  1307  001176                     u1420:
  1308  001176                     
  1309                           ;main.c: 190:                     PORTDbits.RD2 = 0;
  1310  001176  9483               	bcf	131,2,c	;volatile
  1311                           
  1312                           ;main.c: 191:                     PORTDbits.RD3 = 1;
  1313  001178  8683               	bsf	131,3,c	;volatile
  1314                           
  1315                           ;main.c: 192:                     PORTDbits.RD4 = 1;
  1316  00117A  8883               	bsf	131,4,c	;volatile
  1317                           
  1318                           ;main.c: 193:                     PORTDbits.RD5 = 1;
  1319  00117C  8A83               	bsf	131,5,c	;volatile
  1320  00117E                     
  1321                           ;main.c: 194:                     PORTC = 0b01000000;
  1322  00117E  0E40               	movlw	64
  1323  001180  6E82               	movwf	130,c	;volatile
  1324  001182  EF5E  F008         	goto	l1791
  1325  001186                     l1811:
  1326  001186  5017               	movf	display_temp@i^0,w,c
  1327  001188  6E15               	movwf	??_display_temp^0,c
  1328  00118A  6A16               	clrf	(??_display_temp+1)^0,c
  1329                           
  1330                           ; Switch on 2 bytes has been partitioned into a top level switch of size 1, and 1 sub-sw
      +                          itches
  1331                           ; Switch size 1, requested type "simple"
  1332                           ; Number of cases is 1, Range of values is 0 to 0
  1333                           ; switch strategies available:
  1334                           ; Name         Instructions Cycles
  1335                           ; simple_byte            4     3 (average)
  1336                           ;	Chosen strategy is simple_byte
  1337  00118C  5016               	movf	(??_display_temp+1)^0,w,c
  1338  00118E  0A00               	xorlw	0	; case 0
  1339  001190  B4D8               	btfsc	status,2,c
  1340  001192  EFCD  F008         	goto	l2479
  1341  001196  EFE0  F008         	goto	l1813
  1342  00119A                     l2479:
  1343                           
  1344                           ; Switch size 1, requested type "simple"
  1345                           ; Number of cases is 4, Range of values is 0 to 3
  1346                           ; switch strategies available:
  1347                           ; Name         Instructions Cycles
  1348                           ; simple_byte           13     7 (average)
  1349                           ;	Chosen strategy is simple_byte
  1350  00119A  5015               	movf	??_display_temp^0,w,c
  1351  00119C  0A00               	xorlw	0	; case 0
  1352  00119E  B4D8               	btfsc	status,2,c
  1353  0011A0  EF58  F008         	goto	l115
  1354  0011A4  0A01               	xorlw	1	; case 1
  1355  0011A6  B4D8               	btfsc	status,2,c
  1356  0011A8  EF68  F008         	goto	l117
  1357  0011AC  0A03               	xorlw	3	; case 2
  1358  0011AE  B4D8               	btfsc	status,2,c
  1359  0011B0  EF89  F008         	goto	l118
  1360  0011B4  0A01               	xorlw	1	; case 3
  1361  0011B6  B4D8               	btfsc	status,2,c
  1362  0011B8  EFB4  F008         	goto	l1801
  1363  0011BC  EFE0  F008         	goto	l1813
  1364  0011C0                     l1813:
  1365                           
  1366                           ;main.c: 200:         }
  1367  0011C0  2A17               	incf	display_temp@i^0,f,c
  1368  0011C2  0E03               	movlw	3
  1369  0011C4  6417               	cpfsgt	display_temp@i^0,c
  1370  0011C6  EFE7  F008         	goto	u1431
  1371  0011CA  EFE9  F008         	goto	u1430
  1372  0011CE                     u1431:
  1373  0011CE  EFC3  F008         	goto	l1811
  1374  0011D2                     u1430:
  1375  0011D2  0012               	return		;funcret
  1376  0011D4                     __end_of_display_temp:
  1377                           	callstack 0
  1378                           
  1379 ;; *************** function _abs *****************
  1380 ;; Defined at:
  1381 ;;		line 1 in file "C:\Program Files\Microchip\xc8\v2.30\pic\sources\c99\common\abs.c"
  1382 ;; Parameters:    Size  Location     Type
  1383 ;;  a               2    0[COMRAM] int 
  1384 ;; Auto vars:     Size  Location     Type
  1385 ;;		None
  1386 ;; Return value:  Size  Location     Type
  1387 ;;                  2    0[COMRAM] int 
  1388 ;; Registers used:
  1389 ;;		wreg, status,2, status,0
  1390 ;; Tracked objects:
  1391 ;;		On entry : 0/0
  1392 ;;		On exit  : 0/0
  1393 ;;		Unchanged: 0/0
  1394 ;; Data sizes:     COMRAM   BANK0   BANK1   BANK2   BANK3   BANK4   BANK5
  1395 ;;      Params:         2       0       0       0       0       0       0
  1396 ;;      Locals:         0       0       0       0       0       0       0
  1397 ;;      Temps:          2       0       0       0       0       0       0
  1398 ;;      Totals:         4       0       0       0       0       0       0
  1399 ;;Total ram usage:        4 bytes
  1400 ;; Hardware stack levels used:    1
  1401 ;; Hardware stack levels required when called:    2
  1402 ;; This function calls:
  1403 ;;		Nothing
  1404 ;; This function is called by:
  1405 ;;		_display_temp
  1406 ;; This function uses a non-reentrant model
  1407 ;;
  1408                           
  1409                           	psect	text9
  1410  001610                     __ptext9:
  1411                           	callstack 0
  1412  001610                     _abs:
  1413                           	callstack 27
  1414  001610  BE02               	btfsc	(abs@a+1)^0,7,c
  1415  001612  EF15  F00B         	goto	u1280
  1416  001616  5002               	movf	(abs@a+1)^0,w,c
  1417  001618  E106               	bnz	u1281
  1418  00161A  0401               	decf	abs@a^0,w,c
  1419  00161C  B0D8               	btfsc	status,0,c
  1420  00161E  EF13  F00B         	goto	u1281
  1421  001622  EF15  F00B         	goto	u1280
  1422  001626                     u1281:
  1423  001626  EF23  F00B         	goto	l812
  1424  00162A                     u1280:
  1425  00162A  C001  F003         	movff	abs@a,??_abs
  1426  00162E  C002  F004         	movff	abs@a+1,??_abs+1
  1427  001632  1E03               	comf	??_abs^0,f,c
  1428  001634  1E04               	comf	(??_abs+1)^0,f,c
  1429  001636  4A03               	infsnz	??_abs^0,f,c
  1430  001638  2A04               	incf	(??_abs+1)^0,f,c
  1431  00163A  C003  F001         	movff	??_abs,?_abs
  1432  00163E  C004  F002         	movff	??_abs+1,?_abs+1
  1433  001642  EF27  F00B         	goto	l815
  1434  001646                     l812:
  1435  001646  C001  F001         	movff	abs@a,?_abs
  1436  00164A  C002  F002         	movff	abs@a+1,?_abs+1
  1437  00164E                     l815:
  1438  00164E  0012               	return		;funcret
  1439  001650                     __end_of_abs:
  1440                           	callstack 0
  1441                           
  1442 ;; *************** function ___awmod *****************
  1443 ;; Defined at:
  1444 ;;		line 7 in file "C:\Program Files\Microchip\xc8\v2.30\pic\sources\c99\common\awmod.c"
  1445 ;; Parameters:    Size  Location     Type
  1446 ;;  dividend        2   12[COMRAM] int 
  1447 ;;  divisor         2   14[COMRAM] int 
  1448 ;; Auto vars:     Size  Location     Type
  1449 ;;  sign            1   17[COMRAM] unsigned char 
  1450 ;;  counter         1   16[COMRAM] unsigned char 
  1451 ;; Return value:  Size  Location     Type
  1452 ;;                  2   12[COMRAM] int 
  1453 ;; Registers used:
  1454 ;;		wreg, status,2, status,0
  1455 ;; Tracked objects:
  1456 ;;		On entry : 0/0
  1457 ;;		On exit  : 0/0
  1458 ;;		Unchanged: 0/0
  1459 ;; Data sizes:     COMRAM   BANK0   BANK1   BANK2   BANK3   BANK4   BANK5
  1460 ;;      Params:         4       0       0       0       0       0       0
  1461 ;;      Locals:         2       0       0       0       0       0       0
  1462 ;;      Temps:          0       0       0       0       0       0       0
  1463 ;;      Totals:         6       0       0       0       0       0       0
  1464 ;;Total ram usage:        6 bytes
  1465 ;; Hardware stack levels used:    1
  1466 ;; Hardware stack levels required when called:    2
  1467 ;; This function calls:
  1468 ;;		Nothing
  1469 ;; This function is called by:
  1470 ;;		_display_temp
  1471 ;; This function uses a non-reentrant model
  1472 ;;
  1473                           
  1474                           	psect	text10
  1475  0014A2                     __ptext10:
  1476                           	callstack 0
  1477  0014A2                     ___awmod:
  1478                           	callstack 27
  1479  0014A2  0E00               	movlw	0
  1480  0014A4  6E12               	movwf	___awmod@sign^0,c
  1481  0014A6  BE0E               	btfsc	(___awmod@dividend+1)^0,7,c
  1482  0014A8  EF5A  F00A         	goto	u1350
  1483  0014AC  EF58  F00A         	goto	u1351
  1484  0014B0                     u1351:
  1485  0014B0  EF60  F00A         	goto	l1735
  1486  0014B4                     u1350:
  1487  0014B4  6C0D               	negf	___awmod@dividend^0,c
  1488  0014B6  1E0E               	comf	(___awmod@dividend+1)^0,f,c
  1489  0014B8  B0D8               	btfsc	status,0,c
  1490  0014BA  2A0E               	incf	(___awmod@dividend+1)^0,f,c
  1491  0014BC  0E01               	movlw	1
  1492  0014BE  6E12               	movwf	___awmod@sign^0,c
  1493  0014C0                     l1735:
  1494  0014C0  BE10               	btfsc	(___awmod@divisor+1)^0,7,c
  1495  0014C2  EF67  F00A         	goto	u1360
  1496  0014C6  EF65  F00A         	goto	u1361
  1497  0014CA                     u1361:
  1498  0014CA  EF6B  F00A         	goto	l1739
  1499  0014CE                     u1360:
  1500  0014CE  6C0F               	negf	___awmod@divisor^0,c
  1501  0014D0  1E10               	comf	(___awmod@divisor+1)^0,f,c
  1502  0014D2  B0D8               	btfsc	status,0,c
  1503  0014D4  2A10               	incf	(___awmod@divisor+1)^0,f,c
  1504  0014D6                     l1739:
  1505  0014D6  500F               	movf	___awmod@divisor^0,w,c
  1506  0014D8  1010               	iorwf	(___awmod@divisor+1)^0,w,c
  1507  0014DA  B4D8               	btfsc	status,2,c
  1508  0014DC  EF72  F00A         	goto	u1371
  1509  0014E0  EF74  F00A         	goto	u1370
  1510  0014E4                     u1371:
  1511  0014E4  EF98  F00A         	goto	l1755
  1512  0014E8                     u1370:
  1513  0014E8  0E01               	movlw	1
  1514  0014EA  6E11               	movwf	___awmod@counter^0,c
  1515  0014EC  EF7C  F00A         	goto	l1745
  1516  0014F0                     l1743:
  1517  0014F0  90D8               	bcf	status,0,c
  1518  0014F2  360F               	rlcf	___awmod@divisor^0,f,c
  1519  0014F4  3610               	rlcf	(___awmod@divisor+1)^0,f,c
  1520  0014F6  2A11               	incf	___awmod@counter^0,f,c
  1521  0014F8                     l1745:
  1522  0014F8  AE10               	btfss	(___awmod@divisor+1)^0,7,c
  1523  0014FA  EF81  F00A         	goto	u1381
  1524  0014FE  EF83  F00A         	goto	u1380
  1525  001502                     u1381:
  1526  001502  EF78  F00A         	goto	l1743
  1527  001506                     u1380:
  1528  001506                     l1747:
  1529  001506  500F               	movf	___awmod@divisor^0,w,c
  1530  001508  5C0D               	subwf	___awmod@dividend^0,w,c
  1531  00150A  5010               	movf	(___awmod@divisor+1)^0,w,c
  1532  00150C  580E               	subwfb	(___awmod@dividend+1)^0,w,c
  1533  00150E  A0D8               	btfss	status,0,c
  1534  001510  EF8C  F00A         	goto	u1391
  1535  001514  EF8E  F00A         	goto	u1390
  1536  001518                     u1391:
  1537  001518  EF92  F00A         	goto	l1751
  1538  00151C                     u1390:
  1539  00151C  500F               	movf	___awmod@divisor^0,w,c
  1540  00151E  5E0D               	subwf	___awmod@dividend^0,f,c
  1541  001520  5010               	movf	(___awmod@divisor+1)^0,w,c
  1542  001522  5A0E               	subwfb	(___awmod@dividend+1)^0,f,c
  1543  001524                     l1751:
  1544  001524  90D8               	bcf	status,0,c
  1545  001526  3210               	rrcf	(___awmod@divisor+1)^0,f,c
  1546  001528  320F               	rrcf	___awmod@divisor^0,f,c
  1547  00152A  2E11               	decfsz	___awmod@counter^0,f,c
  1548  00152C  EF83  F00A         	goto	l1747
  1549  001530                     l1755:
  1550  001530  5012               	movf	___awmod@sign^0,w,c
  1551  001532  B4D8               	btfsc	status,2,c
  1552  001534  EF9E  F00A         	goto	u1401
  1553  001538  EFA0  F00A         	goto	u1400
  1554  00153C                     u1401:
  1555  00153C  EFA4  F00A         	goto	l1759
  1556  001540                     u1400:
  1557  001540  6C0D               	negf	___awmod@dividend^0,c
  1558  001542  1E0E               	comf	(___awmod@dividend+1)^0,f,c
  1559  001544  B0D8               	btfsc	status,0,c
  1560  001546  2A0E               	incf	(___awmod@dividend+1)^0,f,c
  1561  001548                     l1759:
  1562  001548  C00D  F00D         	movff	___awmod@dividend,?___awmod
  1563  00154C  C00E  F00E         	movff	___awmod@dividend+1,?___awmod+1
  1564  001550  0012               	return		;funcret
  1565  001552                     __end_of___awmod:
  1566                           	callstack 0
  1567                           
  1568 ;; *************** function ___awdiv *****************
  1569 ;; Defined at:
  1570 ;;		line 7 in file "C:\Program Files\Microchip\xc8\v2.30\pic\sources\c99\common\awdiv.c"
  1571 ;; Parameters:    Size  Location     Type
  1572 ;;  dividend        2    4[COMRAM] int 
  1573 ;;  divisor         2    6[COMRAM] int 
  1574 ;; Auto vars:     Size  Location     Type
  1575 ;;  quotient        2   10[COMRAM] int 
  1576 ;;  sign            1    9[COMRAM] unsigned char 
  1577 ;;  counter         1    8[COMRAM] unsigned char 
  1578 ;; Return value:  Size  Location     Type
  1579 ;;                  2    4[COMRAM] int 
  1580 ;; Registers used:
  1581 ;;		wreg, status,2, status,0
  1582 ;; Tracked objects:
  1583 ;;		On entry : 0/0
  1584 ;;		On exit  : 0/0
  1585 ;;		Unchanged: 0/0
  1586 ;; Data sizes:     COMRAM   BANK0   BANK1   BANK2   BANK3   BANK4   BANK5
  1587 ;;      Params:         4       0       0       0       0       0       0
  1588 ;;      Locals:         4       0       0       0       0       0       0
  1589 ;;      Temps:          0       0       0       0       0       0       0
  1590 ;;      Totals:         8       0       0       0       0       0       0
  1591 ;;Total ram usage:        8 bytes
  1592 ;; Hardware stack levels used:    1
  1593 ;; Hardware stack levels required when called:    2
  1594 ;; This function calls:
  1595 ;;		Nothing
  1596 ;; This function is called by:
  1597 ;;		_display_temp
  1598 ;; This function uses a non-reentrant model
  1599 ;;
  1600                           
  1601                           	psect	text11
  1602  0013DE                     __ptext11:
  1603                           	callstack 0
  1604  0013DE                     ___awdiv:
  1605                           	callstack 27
  1606  0013DE  0E00               	movlw	0
  1607  0013E0  6E0A               	movwf	___awdiv@sign^0,c
  1608  0013E2  BE08               	btfsc	(___awdiv@divisor+1)^0,7,c
  1609  0013E4  EFF8  F009         	goto	u1290
  1610  0013E8  EFF6  F009         	goto	u1291
  1611  0013EC                     u1291:
  1612  0013EC  EFFE  F009         	goto	l1691
  1613  0013F0                     u1290:
  1614  0013F0  6C07               	negf	___awdiv@divisor^0,c
  1615  0013F2  1E08               	comf	(___awdiv@divisor+1)^0,f,c
  1616  0013F4  B0D8               	btfsc	status,0,c
  1617  0013F6  2A08               	incf	(___awdiv@divisor+1)^0,f,c
  1618  0013F8  0E01               	movlw	1
  1619  0013FA  6E0A               	movwf	___awdiv@sign^0,c
  1620  0013FC                     l1691:
  1621  0013FC  BE06               	btfsc	(___awdiv@dividend+1)^0,7,c
  1622  0013FE  EF05  F00A         	goto	u1300
  1623  001402  EF03  F00A         	goto	u1301
  1624  001406                     u1301:
  1625  001406  EF0B  F00A         	goto	l1697
  1626  00140A                     u1300:
  1627  00140A  6C05               	negf	___awdiv@dividend^0,c
  1628  00140C  1E06               	comf	(___awdiv@dividend+1)^0,f,c
  1629  00140E  B0D8               	btfsc	status,0,c
  1630  001410  2A06               	incf	(___awdiv@dividend+1)^0,f,c
  1631  001412  0E01               	movlw	1
  1632  001414  1A0A               	xorwf	___awdiv@sign^0,f,c
  1633  001416                     l1697:
  1634  001416  0E00               	movlw	0
  1635  001418  6E0C               	movwf	(___awdiv@quotient+1)^0,c
  1636  00141A  0E00               	movlw	0
  1637  00141C  6E0B               	movwf	___awdiv@quotient^0,c
  1638  00141E  5007               	movf	___awdiv@divisor^0,w,c
  1639  001420  1008               	iorwf	(___awdiv@divisor+1)^0,w,c
  1640  001422  B4D8               	btfsc	status,2,c
  1641  001424  EF16  F00A         	goto	u1311
  1642  001428  EF18  F00A         	goto	u1310
  1643  00142C                     u1311:
  1644  00142C  EF40  F00A         	goto	l1719
  1645  001430                     u1310:
  1646  001430  0E01               	movlw	1
  1647  001432  6E09               	movwf	___awdiv@counter^0,c
  1648  001434  EF20  F00A         	goto	l1705
  1649  001438                     l1703:
  1650  001438  90D8               	bcf	status,0,c
  1651  00143A  3607               	rlcf	___awdiv@divisor^0,f,c
  1652  00143C  3608               	rlcf	(___awdiv@divisor+1)^0,f,c
  1653  00143E  2A09               	incf	___awdiv@counter^0,f,c
  1654  001440                     l1705:
  1655  001440  AE08               	btfss	(___awdiv@divisor+1)^0,7,c
  1656  001442  EF25  F00A         	goto	u1321
  1657  001446  EF27  F00A         	goto	u1320
  1658  00144A                     u1321:
  1659  00144A  EF1C  F00A         	goto	l1703
  1660  00144E                     u1320:
  1661  00144E                     l1707:
  1662  00144E  90D8               	bcf	status,0,c
  1663  001450  360B               	rlcf	___awdiv@quotient^0,f,c
  1664  001452  360C               	rlcf	(___awdiv@quotient+1)^0,f,c
  1665  001454  5007               	movf	___awdiv@divisor^0,w,c
  1666  001456  5C05               	subwf	___awdiv@dividend^0,w,c
  1667  001458  5008               	movf	(___awdiv@divisor+1)^0,w,c
  1668  00145A  5806               	subwfb	(___awdiv@dividend+1)^0,w,c
  1669  00145C  A0D8               	btfss	status,0,c
  1670  00145E  EF33  F00A         	goto	u1331
  1671  001462  EF35  F00A         	goto	u1330
  1672  001466                     u1331:
  1673  001466  EF3A  F00A         	goto	l1715
  1674  00146A                     u1330:
  1675  00146A  5007               	movf	___awdiv@divisor^0,w,c
  1676  00146C  5E05               	subwf	___awdiv@dividend^0,f,c
  1677  00146E  5008               	movf	(___awdiv@divisor+1)^0,w,c
  1678  001470  5A06               	subwfb	(___awdiv@dividend+1)^0,f,c
  1679  001472  800B               	bsf	___awdiv@quotient^0,0,c
  1680  001474                     l1715:
  1681  001474  90D8               	bcf	status,0,c
  1682  001476  3208               	rrcf	(___awdiv@divisor+1)^0,f,c
  1683  001478  3207               	rrcf	___awdiv@divisor^0,f,c
  1684  00147A  2E09               	decfsz	___awdiv@counter^0,f,c
  1685  00147C  EF27  F00A         	goto	l1707
  1686  001480                     l1719:
  1687  001480  500A               	movf	___awdiv@sign^0,w,c
  1688  001482  B4D8               	btfsc	status,2,c
  1689  001484  EF46  F00A         	goto	u1341
  1690  001488  EF48  F00A         	goto	u1340
  1691  00148C                     u1341:
  1692  00148C  EF4C  F00A         	goto	l1723
  1693  001490                     u1340:
  1694  001490  6C0B               	negf	___awdiv@quotient^0,c
  1695  001492  1E0C               	comf	(___awdiv@quotient+1)^0,f,c
  1696  001494  B0D8               	btfsc	status,0,c
  1697  001496  2A0C               	incf	(___awdiv@quotient+1)^0,f,c
  1698  001498                     l1723:
  1699  001498  C00B  F005         	movff	___awdiv@quotient,?___awdiv
  1700  00149C  C00C  F006         	movff	___awdiv@quotient+1,?___awdiv+1
  1701  0014A0  0012               	return		;funcret
  1702  0014A2                     __end_of___awdiv:
  1703                           	callstack 0
  1704                           
  1705 ;; *************** function _channel_conversion *****************
  1706 ;; Defined at:
  1707 ;;		line 202 in file "main.c"
  1708 ;; Parameters:    Size  Location     Type
  1709 ;;  channel         1    wreg     unsigned char 
  1710 ;; Auto vars:     Size  Location     Type
  1711 ;;  channel         1    8[COMRAM] unsigned char 
  1712 ;;  resultat        2    6[COMRAM] unsigned short 
  1713 ;; Return value:  Size  Location     Type
  1714 ;;                  2    0[COMRAM] unsigned short 
  1715 ;; Registers used:
  1716 ;;		wreg, status,2, status,0
  1717 ;; Tracked objects:
  1718 ;;		On entry : 0/0
  1719 ;;		On exit  : 0/0
  1720 ;;		Unchanged: 0/0
  1721 ;; Data sizes:     COMRAM   BANK0   BANK1   BANK2   BANK3   BANK4   BANK5
  1722 ;;      Params:         2       0       0       0       0       0       0
  1723 ;;      Locals:         3       0       0       0       0       0       0
  1724 ;;      Temps:          4       0       0       0       0       0       0
  1725 ;;      Totals:         9       0       0       0       0       0       0
  1726 ;;Total ram usage:        9 bytes
  1727 ;; Hardware stack levels used:    1
  1728 ;; Hardware stack levels required when called:    2
  1729 ;; This function calls:
  1730 ;;		Nothing
  1731 ;; This function is called by:
  1732 ;;		_main
  1733 ;; This function uses a non-reentrant model
  1734 ;;
  1735                           
  1736                           	psect	text12
  1737  001552                     __ptext12:
  1738                           	callstack 0
  1739  001552                     _channel_conversion:
  1740                           	callstack 28
  1741                           
  1742                           ;incstack = 0
  1743                           ;channel_conversion@channel stored from wreg
  1744  001552  6E09               	movwf	channel_conversion@channel^0,c
  1745  001554                     
  1746                           ;main.c: 203:     uint16_t resultat;;main.c: 204:     switch(channel){
  1747  001554  EFB6  F00A         	goto	l1771
  1748  001558                     l1765:
  1749                           
  1750                           ;main.c: 206:             ADCON0bits.CHS = 0b00000;
  1751  001558  0E83               	movlw	-125
  1752  00155A  16C2               	andwf	194,f,c	;volatile
  1753                           
  1754                           ;main.c: 207:         break;
  1755  00155C  EFCB  F00A         	goto	l126
  1756  001560                     l1767:
  1757                           
  1758                           ;main.c: 209:         ADCON0bits.CHS = 0b00001;
  1759  001560  50C2               	movf	194,w,c	;volatile
  1760  001562  0B83               	andlw	-125
  1761  001564  0904               	iorlw	4
  1762  001566  6EC2               	movwf	194,c	;volatile
  1763                           
  1764                           ;main.c: 210:         break;
  1765  001568  EFCB  F00A         	goto	l126
  1766  00156C                     l1771:
  1767  00156C  5009               	movf	channel_conversion@channel^0,w,c
  1768  00156E  6E03               	movwf	??_channel_conversion^0,c
  1769  001570  6A04               	clrf	(??_channel_conversion+1)^0,c
  1770                           
  1771                           ; Switch on 2 bytes has been partitioned into a top level switch of size 1, and 1 sub-sw
      +                          itches
  1772                           ; Switch size 1, requested type "simple"
  1773                           ; Number of cases is 1, Range of values is 0 to 0
  1774                           ; switch strategies available:
  1775                           ; Name         Instructions Cycles
  1776                           ; simple_byte            4     3 (average)
  1777                           ;	Chosen strategy is simple_byte
  1778  001572  5004               	movf	(??_channel_conversion+1)^0,w,c
  1779  001574  0A00               	xorlw	0	; case 0
  1780  001576  B4D8               	btfsc	status,2,c
  1781  001578  EFC0  F00A         	goto	l2481
  1782  00157C  EFCB  F00A         	goto	l126
  1783  001580                     l2481:
  1784                           
  1785                           ; Switch size 1, requested type "simple"
  1786                           ; Number of cases is 2, Range of values is 0 to 1
  1787                           ; switch strategies available:
  1788                           ; Name         Instructions Cycles
  1789                           ; simple_byte            7     4 (average)
  1790                           ;	Chosen strategy is simple_byte
  1791  001580  5003               	movf	??_channel_conversion^0,w,c
  1792  001582  0A00               	xorlw	0	; case 0
  1793  001584  B4D8               	btfsc	status,2,c
  1794  001586  EFAC  F00A         	goto	l1765
  1795  00158A  0A01               	xorlw	1	; case 1
  1796  00158C  B4D8               	btfsc	status,2,c
  1797  00158E  EFB0  F00A         	goto	l1767
  1798  001592  EFCB  F00A         	goto	l126
  1799  001596                     l126:
  1800                           
  1801                           ;main.c: 212:     ADCON0bits.GO = 1;
  1802  001596  82C2               	bsf	194,1,c	;volatile
  1803                           
  1804                           ;main.c: 213:     while(ADCON0bits.GO == 1){
  1805  001598  EFE0  F00A         	goto	l128
  1806  00159C                     l1773:
  1807                           
  1808                           ;main.c: 214:         resultat = ADRESL |(ADRESH<<8);
  1809  00159C  50C4               	movf	196,w,c	;volatile
  1810  00159E  6E04               	movwf	(??_channel_conversion+1)^0,c
  1811  0015A0  6A03               	clrf	??_channel_conversion^0,c
  1812  0015A2  50C3               	movf	195,w,c	;volatile
  1813  0015A4  6E05               	movwf	(??_channel_conversion+2)^0,c
  1814  0015A6  6A06               	clrf	(??_channel_conversion+3)^0,c
  1815  0015A8  5003               	movf	??_channel_conversion^0,w,c
  1816  0015AA  1005               	iorwf	(??_channel_conversion+2)^0,w,c
  1817  0015AC  6E07               	movwf	channel_conversion@resultat^0,c
  1818  0015AE  5004               	movf	(??_channel_conversion+1)^0,w,c
  1819  0015B0  1006               	iorwf	(??_channel_conversion+3)^0,w,c
  1820  0015B2  6E08               	movwf	(channel_conversion@resultat+1)^0,c
  1821  0015B4                     
  1822                           ;main.c: 215:         return resultat;
  1823  0015B4  C007  F001         	movff	channel_conversion@resultat,?_channel_conversion
  1824  0015B8  C008  F002         	movff	channel_conversion@resultat+1,?_channel_conversion+1
  1825  0015BC  EFE7  F00A         	goto	l130
  1826  0015C0                     l128:
  1827                           
  1828                           ;main.c: 213:     while(ADCON0bits.GO == 1){
  1829  0015C0  B2C2               	btfsc	194,1,c	;volatile
  1830  0015C2  EFE5  F00A         	goto	u1411
  1831  0015C6  EFE7  F00A         	goto	u1410
  1832  0015CA                     u1411:
  1833  0015CA  EFCE  F00A         	goto	l1773
  1834  0015CE                     u1410:
  1835  0015CE                     l130:
  1836  0015CE  0012               	return		;funcret
  1837  0015D0                     __end_of_channel_conversion:
  1838                           	callstack 0
  1839                           
  1840 ;; *************** function ___xxtofl *****************
  1841 ;; Defined at:
  1842 ;;		line 10 in file "C:\Program Files\Microchip\xc8\v2.30\pic\sources\c99\common\xxtofl.c"
  1843 ;; Parameters:    Size  Location     Type
  1844 ;;  sign            1    wreg     unsigned char 
  1845 ;;  val             4    9[COMRAM] long 
  1846 ;; Auto vars:     Size  Location     Type
  1847 ;;  sign            1   17[COMRAM] unsigned char 
  1848 ;;  arg             4   19[COMRAM] unsigned long 
  1849 ;;  exp             1   18[COMRAM] unsigned char 
  1850 ;; Return value:  Size  Location     Type
  1851 ;;                  4    9[COMRAM] unsigned char 
  1852 ;; Registers used:
  1853 ;;		wreg, status,2, status,0
  1854 ;; Tracked objects:
  1855 ;;		On entry : 0/0
  1856 ;;		On exit  : 0/0
  1857 ;;		Unchanged: 0/0
  1858 ;; Data sizes:     COMRAM   BANK0   BANK1   BANK2   BANK3   BANK4   BANK5
  1859 ;;      Params:         4       0       0       0       0       0       0
  1860 ;;      Locals:         6       0       0       0       0       0       0
  1861 ;;      Temps:          4       0       0       0       0       0       0
  1862 ;;      Totals:        14       0       0       0       0       0       0
  1863 ;;Total ram usage:       14 bytes
  1864 ;; Hardware stack levels used:    1
  1865 ;; Hardware stack levels required when called:    2
  1866 ;; This function calls:
  1867 ;;		Nothing
  1868 ;; This function is called by:
  1869 ;;		_main
  1870 ;; This function uses a non-reentrant model
  1871 ;;
  1872                           
  1873                           	psect	text13
  1874  000EF4                     __ptext13:
  1875                           	callstack 0
  1876  000EF4                     ___xxtofl:
  1877                           	callstack 28
  1878                           
  1879                           ;incstack = 0
  1880                           ;___xxtofl@sign stored from wreg
  1881  000EF4  6E12               	movwf	___xxtofl@sign^0,c
  1882  000EF6  5012               	movf	___xxtofl@sign^0,w,c
  1883  000EF8  B4D8               	btfsc	status,2,c
  1884  000EFA  EF81  F007         	goto	u2371
  1885  000EFE  EF83  F007         	goto	u2370
  1886  000F02                     u2371:
  1887  000F02  EFA5  F007         	goto	l792
  1888  000F06                     u2370:
  1889  000F06  BE0D               	btfsc	(___xxtofl@val+3)^0,7,c
  1890  000F08  EF8A  F007         	goto	u2380
  1891  000F0C  EF88  F007         	goto	u2381
  1892  000F10                     u2381:
  1893  000F10  EFA5  F007         	goto	l792
  1894  000F14                     u2380:
  1895  000F14  C00A  F00E         	movff	___xxtofl@val,??___xxtofl
  1896  000F18  C00B  F00F         	movff	___xxtofl@val+1,??___xxtofl+1
  1897  000F1C  C00C  F010         	movff	___xxtofl@val+2,??___xxtofl+2
  1898  000F20  C00D  F011         	movff	___xxtofl@val+3,??___xxtofl+3
  1899  000F24  1E0E               	comf	??___xxtofl^0,f,c
  1900  000F26  1E0F               	comf	(??___xxtofl+1)^0,f,c
  1901  000F28  1E10               	comf	(??___xxtofl+2)^0,f,c
  1902  000F2A  1E11               	comf	(??___xxtofl+3)^0,f,c
  1903  000F2C  2A0E               	incf	??___xxtofl^0,f,c
  1904  000F2E  0E00               	movlw	0
  1905  000F30  220F               	addwfc	(??___xxtofl+1)^0,f,c
  1906  000F32  2210               	addwfc	(??___xxtofl+2)^0,f,c
  1907  000F34  2211               	addwfc	(??___xxtofl+3)^0,f,c
  1908  000F36  C00E  F014         	movff	??___xxtofl,___xxtofl@arg
  1909  000F3A  C00F  F015         	movff	??___xxtofl+1,___xxtofl@arg+1
  1910  000F3E  C010  F016         	movff	??___xxtofl+2,___xxtofl@arg+2
  1911  000F42  C011  F017         	movff	??___xxtofl+3,___xxtofl@arg+3
  1912  000F46  EFAD  F007         	goto	l2363
  1913  000F4A                     l792:
  1914  000F4A  C00A  F014         	movff	___xxtofl@val,___xxtofl@arg
  1915  000F4E  C00B  F015         	movff	___xxtofl@val+1,___xxtofl@arg+1
  1916  000F52  C00C  F016         	movff	___xxtofl@val+2,___xxtofl@arg+2
  1917  000F56  C00D  F017         	movff	___xxtofl@val+3,___xxtofl@arg+3
  1918  000F5A                     l2363:
  1919  000F5A  500A               	movf	___xxtofl@val^0,w,c
  1920  000F5C  100B               	iorwf	(___xxtofl@val+1)^0,w,c
  1921  000F5E  100C               	iorwf	(___xxtofl@val+2)^0,w,c
  1922  000F60  100D               	iorwf	(___xxtofl@val+3)^0,w,c
  1923  000F62  A4D8               	btfss	status,2,c
  1924  000F64  EFB6  F007         	goto	u2391
  1925  000F68  EFB8  F007         	goto	u2390
  1926  000F6C                     u2391:
  1927  000F6C  EFC2  F007         	goto	l2369
  1928  000F70                     u2390:
  1929  000F70  0E00               	movlw	0
  1930  000F72  6E0A               	movwf	?___xxtofl^0,c
  1931  000F74  0E00               	movlw	0
  1932  000F76  6E0B               	movwf	(?___xxtofl+1)^0,c
  1933  000F78  0E00               	movlw	0
  1934  000F7A  6E0C               	movwf	(?___xxtofl+2)^0,c
  1935  000F7C  0E00               	movlw	0
  1936  000F7E  6E0D               	movwf	(?___xxtofl+3)^0,c
  1937  000F80  EF53  F008         	goto	l795
  1938  000F84                     l2369:
  1939  000F84  0E96               	movlw	150
  1940  000F86  6E13               	movwf	___xxtofl@exp^0,c
  1941  000F88  EFCC  F007         	goto	l2373
  1942  000F8C                     l2371:
  1943  000F8C  2A13               	incf	___xxtofl@exp^0,f,c
  1944  000F8E  90D8               	bcf	status,0,c
  1945  000F90  3217               	rrcf	(___xxtofl@arg+3)^0,f,c
  1946  000F92  3216               	rrcf	(___xxtofl@arg+2)^0,f,c
  1947  000F94  3215               	rrcf	(___xxtofl@arg+1)^0,f,c
  1948  000F96  3214               	rrcf	___xxtofl@arg^0,f,c
  1949  000F98                     l2373:
  1950  000F98  0E00               	movlw	0
  1951  000F9A  1414               	andwf	___xxtofl@arg^0,w,c
  1952  000F9C  6E0E               	movwf	??___xxtofl^0,c
  1953  000F9E  0E00               	movlw	0
  1954  000FA0  1415               	andwf	(___xxtofl@arg+1)^0,w,c
  1955  000FA2  6E0F               	movwf	(??___xxtofl+1)^0,c
  1956  000FA4  0E00               	movlw	0
  1957  000FA6  1416               	andwf	(___xxtofl@arg+2)^0,w,c
  1958  000FA8  6E10               	movwf	(??___xxtofl+2)^0,c
  1959  000FAA  0EFE               	movlw	254
  1960  000FAC  1417               	andwf	(___xxtofl@arg+3)^0,w,c
  1961  000FAE  6E11               	movwf	(??___xxtofl+3)^0,c
  1962  000FB0  500E               	movf	??___xxtofl^0,w,c
  1963  000FB2  100F               	iorwf	(??___xxtofl+1)^0,w,c
  1964  000FB4  1010               	iorwf	(??___xxtofl+2)^0,w,c
  1965  000FB6  1011               	iorwf	(??___xxtofl+3)^0,w,c
  1966  000FB8  A4D8               	btfss	status,2,c
  1967  000FBA  EFE1  F007         	goto	u2401
  1968  000FBE  EFE3  F007         	goto	u2400
  1969  000FC2                     u2401:
  1970  000FC2  EFC6  F007         	goto	l2371
  1971  000FC6                     u2400:
  1972  000FC6  EFF1  F007         	goto	l799
  1973  000FCA                     l2375:
  1974  000FCA  2A13               	incf	___xxtofl@exp^0,f,c
  1975  000FCC  0E01               	movlw	1
  1976  000FCE  2614               	addwf	___xxtofl@arg^0,f,c
  1977  000FD0  0E00               	movlw	0
  1978  000FD2  2215               	addwfc	(___xxtofl@arg+1)^0,f,c
  1979  000FD4  2216               	addwfc	(___xxtofl@arg+2)^0,f,c
  1980  000FD6  2217               	addwfc	(___xxtofl@arg+3)^0,f,c
  1981  000FD8  90D8               	bcf	status,0,c
  1982  000FDA  3217               	rrcf	(___xxtofl@arg+3)^0,f,c
  1983  000FDC  3216               	rrcf	(___xxtofl@arg+2)^0,f,c
  1984  000FDE  3215               	rrcf	(___xxtofl@arg+1)^0,f,c
  1985  000FE0  3214               	rrcf	___xxtofl@arg^0,f,c
  1986  000FE2                     l799:
  1987  000FE2  0E00               	movlw	0
  1988  000FE4  1414               	andwf	___xxtofl@arg^0,w,c
  1989  000FE6  6E0E               	movwf	??___xxtofl^0,c
  1990  000FE8  0E00               	movlw	0
  1991  000FEA  1415               	andwf	(___xxtofl@arg+1)^0,w,c
  1992  000FEC  6E0F               	movwf	(??___xxtofl+1)^0,c
  1993  000FEE  0E00               	movlw	0
  1994  000FF0  1416               	andwf	(___xxtofl@arg+2)^0,w,c
  1995  000FF2  6E10               	movwf	(??___xxtofl+2)^0,c
  1996  000FF4  0EFF               	movlw	255
  1997  000FF6  1417               	andwf	(___xxtofl@arg+3)^0,w,c
  1998  000FF8  6E11               	movwf	(??___xxtofl+3)^0,c
  1999  000FFA  500E               	movf	??___xxtofl^0,w,c
  2000  000FFC  100F               	iorwf	(??___xxtofl+1)^0,w,c
  2001  000FFE  1010               	iorwf	(??___xxtofl+2)^0,w,c
  2002  001000  1011               	iorwf	(??___xxtofl+3)^0,w,c
  2003  001002  A4D8               	btfss	status,2,c
  2004  001004  EF06  F008         	goto	u2411
  2005  001008  EF08  F008         	goto	u2410
  2006  00100C                     u2411:
  2007  00100C  EFE5  F007         	goto	l2375
  2008  001010                     u2410:
  2009  001010  EF10  F008         	goto	l2383
  2010  001014                     l2381:
  2011  001014  0613               	decf	___xxtofl@exp^0,f,c
  2012  001016  90D8               	bcf	status,0,c
  2013  001018  3614               	rlcf	___xxtofl@arg^0,f,c
  2014  00101A  3615               	rlcf	(___xxtofl@arg+1)^0,f,c
  2015  00101C  3616               	rlcf	(___xxtofl@arg+2)^0,f,c
  2016  00101E  3617               	rlcf	(___xxtofl@arg+3)^0,f,c
  2017  001020                     l2383:
  2018  001020  BE16               	btfsc	(___xxtofl@arg+2)^0,7,c
  2019  001022  EF15  F008         	goto	u2421
  2020  001026  EF17  F008         	goto	u2420
  2021  00102A                     u2421:
  2022  00102A  EF1F  F008         	goto	l806
  2023  00102E                     u2420:
  2024  00102E  0E02               	movlw	2
  2025  001030  6013               	cpfslt	___xxtofl@exp^0,c
  2026  001032  EF1D  F008         	goto	u2431
  2027  001036  EF1F  F008         	goto	u2430
  2028  00103A                     u2431:
  2029  00103A  EF0A  F008         	goto	l2381
  2030  00103E                     u2430:
  2031  00103E                     l806:
  2032  00103E  B013               	btfsc	___xxtofl@exp^0,0,c
  2033  001040  EF24  F008         	goto	u2441
  2034  001044  EF26  F008         	goto	u2440
  2035  001048                     u2441:
  2036  001048  EF27  F008         	goto	l2389
  2037  00104C                     u2440:
  2038  00104C  9E16               	bcf	(___xxtofl@arg+2)^0,7,c
  2039  00104E                     l2389:
  2040  00104E  90D8               	bcf	status,0,c
  2041  001050  3213               	rrcf	___xxtofl@exp^0,f,c
  2042  001052  C013  F00E         	movff	___xxtofl@exp,??___xxtofl
  2043  001056  6A0F               	clrf	(??___xxtofl+1)^0,c
  2044  001058  6A10               	clrf	(??___xxtofl+2)^0,c
  2045  00105A  6A11               	clrf	(??___xxtofl+3)^0,c
  2046  00105C  C00E  F011         	movff	??___xxtofl,??___xxtofl+3
  2047  001060  6A10               	clrf	(??___xxtofl+2)^0,c
  2048  001062  6A0F               	clrf	(??___xxtofl+1)^0,c
  2049  001064  6A0E               	clrf	??___xxtofl^0,c
  2050  001066  500E               	movf	??___xxtofl^0,w,c
  2051  001068  1214               	iorwf	___xxtofl@arg^0,f,c
  2052  00106A  500F               	movf	(??___xxtofl+1)^0,w,c
  2053  00106C  1215               	iorwf	(___xxtofl@arg+1)^0,f,c
  2054  00106E  5010               	movf	(??___xxtofl+2)^0,w,c
  2055  001070  1216               	iorwf	(___xxtofl@arg+2)^0,f,c
  2056  001072  5011               	movf	(??___xxtofl+3)^0,w,c
  2057  001074  1217               	iorwf	(___xxtofl@arg+3)^0,f,c
  2058  001076  5012               	movf	___xxtofl@sign^0,w,c
  2059  001078  B4D8               	btfsc	status,2,c
  2060  00107A  EF41  F008         	goto	u2451
  2061  00107E  EF43  F008         	goto	u2450
  2062  001082                     u2451:
  2063  001082  EF4B  F008         	goto	l2399
  2064  001086                     u2450:
  2065  001086  BE0D               	btfsc	(___xxtofl@val+3)^0,7,c
  2066  001088  EF4A  F008         	goto	u2460
  2067  00108C  EF48  F008         	goto	u2461
  2068  001090                     u2461:
  2069  001090  EF4B  F008         	goto	l2399
  2070  001094                     u2460:
  2071  001094  8E17               	bsf	(___xxtofl@arg+3)^0,7,c
  2072  001096                     l2399:
  2073  001096  C014  F00A         	movff	___xxtofl@arg,?___xxtofl
  2074  00109A  C015  F00B         	movff	___xxtofl@arg+1,?___xxtofl+1
  2075  00109E  C016  F00C         	movff	___xxtofl@arg+2,?___xxtofl+2
  2076  0010A2  C017  F00D         	movff	___xxtofl@arg+3,?___xxtofl+3
  2077  0010A6                     l795:
  2078  0010A6  0012               	return		;funcret
  2079  0010A8                     __end_of___xxtofl:
  2080                           	callstack 0
  2081                           
  2082 ;; *************** function ___fltol *****************
  2083 ;; Defined at:
  2084 ;;		line 43 in file "C:\Program Files\Microchip\xc8\v2.30\pic\sources\c99\common\fltol.c"
  2085 ;; Parameters:    Size  Location     Type
  2086 ;;  f1              4    0[COMRAM] unsigned char 
  2087 ;; Auto vars:     Size  Location     Type
  2088 ;;  exp1            1    9[COMRAM] unsigned char 
  2089 ;;  sign1           1    8[COMRAM] unsigned char 
  2090 ;; Return value:  Size  Location     Type
  2091 ;;                  4    0[COMRAM] long 
  2092 ;; Registers used:
  2093 ;;		wreg, status,2, status,0
  2094 ;; Tracked objects:
  2095 ;;		On entry : 0/0
  2096 ;;		On exit  : 0/0
  2097 ;;		Unchanged: 0/0
  2098 ;; Data sizes:     COMRAM   BANK0   BANK1   BANK2   BANK3   BANK4   BANK5
  2099 ;;      Params:         4       0       0       0       0       0       0
  2100 ;;      Locals:         2       0       0       0       0       0       0
  2101 ;;      Temps:          4       0       0       0       0       0       0
  2102 ;;      Totals:        10       0       0       0       0       0       0
  2103 ;;Total ram usage:       10 bytes
  2104 ;; Hardware stack levels used:    1
  2105 ;; Hardware stack levels required when called:    2
  2106 ;; This function calls:
  2107 ;;		Nothing
  2108 ;; This function is called by:
  2109 ;;		_main
  2110 ;; This function uses a non-reentrant model
  2111 ;;
  2112                           
  2113                           	psect	text14
  2114  0011D4                     __ptext14:
  2115                           	callstack 0
  2116  0011D4                     ___fltol:
  2117                           	callstack 28
  2118  0011D4  3403               	rlcf	(___fltol@f1+2)^0,w,c
  2119  0011D6  3404               	rlcf	(___fltol@f1+3)^0,w,c
  2120  0011D8  6E0A               	movwf	___fltol@exp1^0,c
  2121  0011DA  500A               	movf	___fltol@exp1^0,w,c
  2122  0011DC  A4D8               	btfss	status,2,c
  2123  0011DE  EFF3  F008         	goto	u2301
  2124  0011E2  EFF5  F008         	goto	u2300
  2125  0011E6                     u2301:
  2126  0011E6  EFFF  F008         	goto	l2319
  2127  0011EA                     u2300:
  2128  0011EA                     l2315:
  2129  0011EA  0E00               	movlw	0
  2130  0011EC  6E01               	movwf	?___fltol^0,c
  2131  0011EE  0E00               	movlw	0
  2132  0011F0  6E02               	movwf	(?___fltol+1)^0,c
  2133  0011F2  0E00               	movlw	0
  2134  0011F4  6E03               	movwf	(?___fltol+2)^0,c
  2135  0011F6  0E00               	movlw	0
  2136  0011F8  6E04               	movwf	(?___fltol+3)^0,c
  2137  0011FA  EF6C  F009         	goto	l434
  2138  0011FE                     l2319:
  2139  0011FE  C001  F005         	movff	___fltol@f1,??___fltol
  2140  001202  C002  F006         	movff	___fltol@f1+1,??___fltol+1
  2141  001206  C003  F007         	movff	___fltol@f1+2,??___fltol+2
  2142  00120A  C004  F008         	movff	___fltol@f1+3,??___fltol+3
  2143  00120E  0E20               	movlw	32
  2144  001210  EF0F  F009         	goto	u2310
  2145  001214                     u2315:
  2146  001214  90D8               	bcf	status,0,c
  2147  001216  3208               	rrcf	(??___fltol+3)^0,f,c
  2148  001218  3207               	rrcf	(??___fltol+2)^0,f,c
  2149  00121A  3206               	rrcf	(??___fltol+1)^0,f,c
  2150  00121C  3205               	rrcf	??___fltol^0,f,c
  2151  00121E                     u2310:
  2152  00121E  2EE8               	decfsz	wreg,f,c
  2153  001220  EF0A  F009         	goto	u2315
  2154  001224  5005               	movf	??___fltol^0,w,c
  2155  001226  6E09               	movwf	___fltol@sign1^0,c
  2156  001228  8E03               	bsf	(___fltol@f1+2)^0,7,c
  2157  00122A  0EFF               	movlw	255
  2158  00122C  1601               	andwf	___fltol@f1^0,f,c
  2159  00122E  0EFF               	movlw	255
  2160  001230  1602               	andwf	(___fltol@f1+1)^0,f,c
  2161  001232  0EFF               	movlw	255
  2162  001234  1603               	andwf	(___fltol@f1+2)^0,f,c
  2163  001236  0E00               	movlw	0
  2164  001238  1604               	andwf	(___fltol@f1+3)^0,f,c
  2165  00123A  0E96               	movlw	150
  2166  00123C  5E0A               	subwf	___fltol@exp1^0,f,c
  2167  00123E  BE0A               	btfsc	___fltol@exp1^0,7,c
  2168  001240  EF26  F009         	goto	u2320
  2169  001244  EF24  F009         	goto	u2321
  2170  001248                     u2321:
  2171  001248  EF3C  F009         	goto	l2339
  2172  00124C                     u2320:
  2173  00124C  500A               	movf	___fltol@exp1^0,w,c
  2174  00124E  0A80               	xorlw	128
  2175  001250  0F97               	addlw	151
  2176  001252  B0D8               	btfsc	status,0,c
  2177  001254  EF2E  F009         	goto	u2331
  2178  001258  EF30  F009         	goto	u2330
  2179  00125C                     u2331:
  2180  00125C  EF32  F009         	goto	l2335
  2181  001260                     u2330:
  2182  001260  EFF5  F008         	goto	l2315
  2183  001264                     l2335:
  2184  001264  90D8               	bcf	status,0,c
  2185  001266  3204               	rrcf	(___fltol@f1+3)^0,f,c
  2186  001268  3203               	rrcf	(___fltol@f1+2)^0,f,c
  2187  00126A  3202               	rrcf	(___fltol@f1+1)^0,f,c
  2188  00126C  3201               	rrcf	___fltol@f1^0,f,c
  2189  00126E  3E0A               	incfsz	___fltol@exp1^0,f,c
  2190  001270  EF32  F009         	goto	l2335
  2191  001274  EF54  F009         	goto	l2349
  2192  001278                     l2339:
  2193  001278  0E1F               	movlw	31
  2194  00127A  640A               	cpfsgt	___fltol@exp1^0,c
  2195  00127C  EF42  F009         	goto	u2341
  2196  001280  EF44  F009         	goto	u2340
  2197  001284                     u2341:
  2198  001284  EF4C  F009         	goto	l2347
  2199  001288                     u2340:
  2200  001288  EFF5  F008         	goto	l2315
  2201  00128C                     l2345:
  2202  00128C  90D8               	bcf	status,0,c
  2203  00128E  3601               	rlcf	___fltol@f1^0,f,c
  2204  001290  3602               	rlcf	(___fltol@f1+1)^0,f,c
  2205  001292  3603               	rlcf	(___fltol@f1+2)^0,f,c
  2206  001294  3604               	rlcf	(___fltol@f1+3)^0,f,c
  2207  001296  060A               	decf	___fltol@exp1^0,f,c
  2208  001298                     l2347:
  2209  001298  500A               	movf	___fltol@exp1^0,w,c
  2210  00129A  A4D8               	btfss	status,2,c
  2211  00129C  EF52  F009         	goto	u2351
  2212  0012A0  EF54  F009         	goto	u2350
  2213  0012A4                     u2351:
  2214  0012A4  EF46  F009         	goto	l2345
  2215  0012A8                     u2350:
  2216  0012A8                     l2349:
  2217  0012A8  5009               	movf	___fltol@sign1^0,w,c
  2218  0012AA  B4D8               	btfsc	status,2,c
  2219  0012AC  EF5A  F009         	goto	u2361
  2220  0012B0  EF5C  F009         	goto	u2360
  2221  0012B4                     u2361:
  2222  0012B4  EF64  F009         	goto	l2353
  2223  0012B8                     u2360:
  2224  0012B8  1E04               	comf	(___fltol@f1+3)^0,f,c
  2225  0012BA  1E03               	comf	(___fltol@f1+2)^0,f,c
  2226  0012BC  1E02               	comf	(___fltol@f1+1)^0,f,c
  2227  0012BE  6C01               	negf	___fltol@f1^0,c
  2228  0012C0  0E00               	movlw	0
  2229  0012C2  2202               	addwfc	(___fltol@f1+1)^0,f,c
  2230  0012C4  2203               	addwfc	(___fltol@f1+2)^0,f,c
  2231  0012C6  2204               	addwfc	(___fltol@f1+3)^0,f,c
  2232  0012C8                     l2353:
  2233  0012C8  C001  F001         	movff	___fltol@f1,?___fltol
  2234  0012CC  C002  F002         	movff	___fltol@f1+1,?___fltol+1
  2235  0012D0  C003  F003         	movff	___fltol@f1+2,?___fltol+2
  2236  0012D4  C004  F004         	movff	___fltol@f1+3,?___fltol+3
  2237  0012D8                     l434:
  2238  0012D8  0012               	return		;funcret
  2239  0012DA                     __end_of___fltol:
  2240                           	callstack 0
  2241                           
  2242 ;; *************** function ___flmul *****************
  2243 ;; Defined at:
  2244 ;;		line 8 in file "C:\Program Files\Microchip\xc8\v2.30\pic\sources\c99\common\sprcmul.c"
  2245 ;; Parameters:    Size  Location     Type
  2246 ;;  b               4    0[COMRAM] long 
  2247 ;;  a               4    4[COMRAM] long 
  2248 ;; Auto vars:     Size  Location     Type
  2249 ;;  prod            4   19[COMRAM] struct .
  2250 ;;  grs             4   13[COMRAM] unsigned long 
  2251 ;;  temp            2   23[COMRAM] struct .
  2252 ;;  bexp            1   18[COMRAM] unsigned char 
  2253 ;;  aexp            1   17[COMRAM] unsigned char 
  2254 ;;  sign            1   12[COMRAM] unsigned char 
  2255 ;; Return value:  Size  Location     Type
  2256 ;;                  4    0[COMRAM] unsigned char 
  2257 ;; Registers used:
  2258 ;;		wreg, status,2, status,0, prodl, prodh
  2259 ;; Tracked objects:
  2260 ;;		On entry : 0/0
  2261 ;;		On exit  : 0/0
  2262 ;;		Unchanged: 0/0
  2263 ;; Data sizes:     COMRAM   BANK0   BANK1   BANK2   BANK3   BANK4   BANK5
  2264 ;;      Params:         8       0       0       0       0       0       0
  2265 ;;      Locals:        13       0       0       0       0       0       0
  2266 ;;      Temps:          4       0       0       0       0       0       0
  2267 ;;      Totals:        25       0       0       0       0       0       0
  2268 ;;Total ram usage:       25 bytes
  2269 ;; Hardware stack levels used:    1
  2270 ;; Hardware stack levels required when called:    2
  2271 ;; This function calls:
  2272 ;;		Nothing
  2273 ;; This function is called by:
  2274 ;;		_main
  2275 ;; This function uses a non-reentrant model
  2276 ;;
  2277                           
  2278                           	psect	text15
  2279  000502                     __ptext15:
  2280                           	callstack 0
  2281  000502                     ___flmul:
  2282                           	callstack 28
  2283  000502  5004               	movf	(___flmul@b+3)^0,w,c
  2284  000504  0B80               	andlw	128
  2285  000506  6E0D               	movwf	___flmul@sign^0,c
  2286  000508  5004               	movf	(___flmul@b+3)^0,w,c
  2287  00050A  2404               	addwf	(___flmul@b+3)^0,w,c
  2288  00050C  6E13               	movwf	___flmul@bexp^0,c
  2289  00050E  AE03               	btfss	(___flmul@b+2)^0,7,c
  2290  000510  EF8C  F002         	goto	u2061
  2291  000514  EF8E  F002         	goto	u2060
  2292  000518                     u2061:
  2293  000518  EF8F  F002         	goto	l2167
  2294  00051C                     u2060:
  2295  00051C  8013               	bsf	___flmul@bexp^0,0,c
  2296  00051E                     l2167:
  2297  00051E  5013               	movf	___flmul@bexp^0,w,c
  2298  000520  B4D8               	btfsc	status,2,c
  2299  000522  EF95  F002         	goto	u2071
  2300  000526  EF97  F002         	goto	u2070
  2301  00052A                     u2071:
  2302  00052A  EFAA  F002         	goto	l2175
  2303  00052E                     u2070:
  2304  00052E  2813               	incf	___flmul@bexp^0,w,c
  2305  000530  A4D8               	btfss	status,2,c
  2306  000532  EF9D  F002         	goto	u2081
  2307  000536  EF9F  F002         	goto	u2080
  2308  00053A                     u2081:
  2309  00053A  EFA7  F002         	goto	l2173
  2310  00053E                     u2080:
  2311  00053E  0E00               	movlw	0
  2312  000540  6E01               	movwf	___flmul@b^0,c
  2313  000542  0E00               	movlw	0
  2314  000544  6E02               	movwf	(___flmul@b+1)^0,c
  2315  000546  0E00               	movlw	0
  2316  000548  6E03               	movwf	(___flmul@b+2)^0,c
  2317  00054A  0E00               	movlw	0
  2318  00054C  6E04               	movwf	(___flmul@b+3)^0,c
  2319  00054E                     l2173:
  2320  00054E  8E03               	bsf	(___flmul@b+2)^0,7,c
  2321  000550  EFB2  F002         	goto	l2177
  2322  000554                     l2175:
  2323  000554  0E00               	movlw	0
  2324  000556  6E01               	movwf	___flmul@b^0,c
  2325  000558  0E00               	movlw	0
  2326  00055A  6E02               	movwf	(___flmul@b+1)^0,c
  2327  00055C  0E00               	movlw	0
  2328  00055E  6E03               	movwf	(___flmul@b+2)^0,c
  2329  000560  0E00               	movlw	0
  2330  000562  6E04               	movwf	(___flmul@b+3)^0,c
  2331  000564                     l2177:
  2332  000564  5008               	movf	(___flmul@a+3)^0,w,c
  2333  000566  0B80               	andlw	128
  2334  000568  1A0D               	xorwf	___flmul@sign^0,f,c
  2335  00056A  5008               	movf	(___flmul@a+3)^0,w,c
  2336  00056C  2408               	addwf	(___flmul@a+3)^0,w,c
  2337  00056E  6E12               	movwf	___flmul@aexp^0,c
  2338  000570  AE07               	btfss	(___flmul@a+2)^0,7,c
  2339  000572  EFBD  F002         	goto	u2091
  2340  000576  EFBF  F002         	goto	u2090
  2341  00057A                     u2091:
  2342  00057A  EFC0  F002         	goto	l2185
  2343  00057E                     u2090:
  2344  00057E  8012               	bsf	___flmul@aexp^0,0,c
  2345  000580                     l2185:
  2346  000580  5012               	movf	___flmul@aexp^0,w,c
  2347  000582  B4D8               	btfsc	status,2,c
  2348  000584  EFC6  F002         	goto	u2101
  2349  000588  EFC8  F002         	goto	u2100
  2350  00058C                     u2101:
  2351  00058C  EFDB  F002         	goto	l2193
  2352  000590                     u2100:
  2353  000590  2812               	incf	___flmul@aexp^0,w,c
  2354  000592  A4D8               	btfss	status,2,c
  2355  000594  EFCE  F002         	goto	u2111
  2356  000598  EFD0  F002         	goto	u2110
  2357  00059C                     u2111:
  2358  00059C  EFD8  F002         	goto	l2191
  2359  0005A0                     u2110:
  2360  0005A0  0E00               	movlw	0
  2361  0005A2  6E05               	movwf	___flmul@a^0,c
  2362  0005A4  0E00               	movlw	0
  2363  0005A6  6E06               	movwf	(___flmul@a+1)^0,c
  2364  0005A8  0E00               	movlw	0
  2365  0005AA  6E07               	movwf	(___flmul@a+2)^0,c
  2366  0005AC  0E00               	movlw	0
  2367  0005AE  6E08               	movwf	(___flmul@a+3)^0,c
  2368  0005B0                     l2191:
  2369  0005B0  8E07               	bsf	(___flmul@a+2)^0,7,c
  2370  0005B2  EFE3  F002         	goto	l751
  2371  0005B6                     l2193:
  2372  0005B6  0E00               	movlw	0
  2373  0005B8  6E05               	movwf	___flmul@a^0,c
  2374  0005BA  0E00               	movlw	0
  2375  0005BC  6E06               	movwf	(___flmul@a+1)^0,c
  2376  0005BE  0E00               	movlw	0
  2377  0005C0  6E07               	movwf	(___flmul@a+2)^0,c
  2378  0005C2  0E00               	movlw	0
  2379  0005C4  6E08               	movwf	(___flmul@a+3)^0,c
  2380  0005C6                     l751:
  2381  0005C6  5012               	movf	___flmul@aexp^0,w,c
  2382  0005C8  B4D8               	btfsc	status,2,c
  2383  0005CA  EFE9  F002         	goto	u2121
  2384  0005CE  EFEB  F002         	goto	u2120
  2385  0005D2                     u2121:
  2386  0005D2  EFF3  F002         	goto	l2197
  2387  0005D6                     u2120:
  2388  0005D6  5013               	movf	___flmul@bexp^0,w,c
  2389  0005D8  A4D8               	btfss	status,2,c
  2390  0005DA  EFF1  F002         	goto	u2131
  2391  0005DE  EFF3  F002         	goto	u2130
  2392  0005E2                     u2131:
  2393  0005E2  EFFD  F002         	goto	l2201
  2394  0005E6                     u2130:
  2395  0005E6                     l2197:
  2396  0005E6  0E00               	movlw	0
  2397  0005E8  6E01               	movwf	?___flmul^0,c
  2398  0005EA  0E00               	movlw	0
  2399  0005EC  6E02               	movwf	(?___flmul+1)^0,c
  2400  0005EE  0E00               	movlw	0
  2401  0005F0  6E03               	movwf	(?___flmul+2)^0,c
  2402  0005F2  0E00               	movlw	0
  2403  0005F4  6E04               	movwf	(?___flmul+3)^0,c
  2404  0005F6  EF95  F004         	goto	l755
  2405  0005FA                     l2201:
  2406  0005FA  5007               	movf	(___flmul@a+2)^0,w,c
  2407  0005FC  0201               	mulwf	___flmul@b^0,c
  2408  0005FE  CFF3 F018          	movff	prodl,___flmul@temp
  2409  000602  CFF4 F019          	movff	prodh,___flmul@temp+1
  2410  000606  5018               	movf	___flmul@temp^0,w,c
  2411  000608  6E0E               	movwf	___flmul@grs^0,c
  2412  00060A  6A0F               	clrf	(___flmul@grs+1)^0,c
  2413  00060C  6A10               	clrf	(___flmul@grs+2)^0,c
  2414  00060E  6A11               	clrf	(___flmul@grs+3)^0,c
  2415  000610  5019               	movf	(___flmul@temp+1)^0,w,c
  2416  000612  6E14               	movwf	___flmul@prod^0,c
  2417  000614  6A15               	clrf	(___flmul@prod+1)^0,c
  2418  000616  6A16               	clrf	(___flmul@prod+2)^0,c
  2419  000618  6A17               	clrf	(___flmul@prod+3)^0,c
  2420  00061A  5006               	movf	(___flmul@a+1)^0,w,c
  2421  00061C  0202               	mulwf	(___flmul@b+1)^0,c
  2422  00061E  CFF3 F018          	movff	prodl,___flmul@temp
  2423  000622  CFF4 F019          	movff	prodh,___flmul@temp+1
  2424  000626  5018               	movf	___flmul@temp^0,w,c
  2425  000628  260E               	addwf	___flmul@grs^0,f,c
  2426  00062A  0E00               	movlw	0
  2427  00062C  220F               	addwfc	(___flmul@grs+1)^0,f,c
  2428  00062E  2210               	addwfc	(___flmul@grs+2)^0,f,c
  2429  000630  2211               	addwfc	(___flmul@grs+3)^0,f,c
  2430  000632  5019               	movf	(___flmul@temp+1)^0,w,c
  2431  000634  2614               	addwf	___flmul@prod^0,f,c
  2432  000636  0E00               	movlw	0
  2433  000638  2215               	addwfc	(___flmul@prod+1)^0,f,c
  2434  00063A  2216               	addwfc	(___flmul@prod+2)^0,f,c
  2435  00063C  2217               	addwfc	(___flmul@prod+3)^0,f,c
  2436  00063E  5005               	movf	___flmul@a^0,w,c
  2437  000640  0203               	mulwf	(___flmul@b+2)^0,c
  2438  000642  CFF3 F018          	movff	prodl,___flmul@temp
  2439  000646  CFF4 F019          	movff	prodh,___flmul@temp+1
  2440  00064A  5018               	movf	___flmul@temp^0,w,c
  2441  00064C  260E               	addwf	___flmul@grs^0,f,c
  2442  00064E  0E00               	movlw	0
  2443  000650  220F               	addwfc	(___flmul@grs+1)^0,f,c
  2444  000652  2210               	addwfc	(___flmul@grs+2)^0,f,c
  2445  000654  2211               	addwfc	(___flmul@grs+3)^0,f,c
  2446  000656  5019               	movf	(___flmul@temp+1)^0,w,c
  2447  000658  2614               	addwf	___flmul@prod^0,f,c
  2448  00065A  0E00               	movlw	0
  2449  00065C  2215               	addwfc	(___flmul@prod+1)^0,f,c
  2450  00065E  2216               	addwfc	(___flmul@prod+2)^0,f,c
  2451  000660  2217               	addwfc	(___flmul@prod+3)^0,f,c
  2452  000662  C010  F011         	movff	___flmul@grs+2,___flmul@grs+3
  2453  000666  C00F  F010         	movff	___flmul@grs+1,___flmul@grs+2
  2454  00066A  C00E  F00F         	movff	___flmul@grs,___flmul@grs+1
  2455  00066E  6A0E               	clrf	___flmul@grs^0,c
  2456  000670  5005               	movf	___flmul@a^0,w,c
  2457  000672  0202               	mulwf	(___flmul@b+1)^0,c
  2458  000674  CFF3 F018          	movff	prodl,___flmul@temp
  2459  000678  CFF4 F019          	movff	prodh,___flmul@temp+1
  2460  00067C  5018               	movf	___flmul@temp^0,w,c
  2461  00067E  260E               	addwf	___flmul@grs^0,f,c
  2462  000680  5019               	movf	(___flmul@temp+1)^0,w,c
  2463  000682  220F               	addwfc	(___flmul@grs+1)^0,f,c
  2464  000684  0E00               	movlw	0
  2465  000686  2210               	addwfc	(___flmul@grs+2)^0,f,c
  2466  000688  0E00               	movlw	0
  2467  00068A  2211               	addwfc	(___flmul@grs+3)^0,f,c
  2468  00068C  5006               	movf	(___flmul@a+1)^0,w,c
  2469  00068E  0201               	mulwf	___flmul@b^0,c
  2470  000690  CFF3 F018          	movff	prodl,___flmul@temp
  2471  000694  CFF4 F019          	movff	prodh,___flmul@temp+1
  2472  000698  5018               	movf	___flmul@temp^0,w,c
  2473  00069A  260E               	addwf	___flmul@grs^0,f,c
  2474  00069C  5019               	movf	(___flmul@temp+1)^0,w,c
  2475  00069E  220F               	addwfc	(___flmul@grs+1)^0,f,c
  2476  0006A0  0E00               	movlw	0
  2477  0006A2  2210               	addwfc	(___flmul@grs+2)^0,f,c
  2478  0006A4  0E00               	movlw	0
  2479  0006A6  2211               	addwfc	(___flmul@grs+3)^0,f,c
  2480  0006A8  C010  F011         	movff	___flmul@grs+2,___flmul@grs+3
  2481  0006AC  C00F  F010         	movff	___flmul@grs+1,___flmul@grs+2
  2482  0006B0  C00E  F00F         	movff	___flmul@grs,___flmul@grs+1
  2483  0006B4  6A0E               	clrf	___flmul@grs^0,c
  2484  0006B6  5005               	movf	___flmul@a^0,w,c
  2485  0006B8  0201               	mulwf	___flmul@b^0,c
  2486  0006BA  CFF3 F018          	movff	prodl,___flmul@temp
  2487  0006BE  CFF4 F019          	movff	prodh,___flmul@temp+1
  2488  0006C2  5018               	movf	___flmul@temp^0,w,c
  2489  0006C4  260E               	addwf	___flmul@grs^0,f,c
  2490  0006C6  5019               	movf	(___flmul@temp+1)^0,w,c
  2491  0006C8  220F               	addwfc	(___flmul@grs+1)^0,f,c
  2492  0006CA  0E00               	movlw	0
  2493  0006CC  2210               	addwfc	(___flmul@grs+2)^0,f,c
  2494  0006CE  0E00               	movlw	0
  2495  0006D0  2211               	addwfc	(___flmul@grs+3)^0,f,c
  2496  0006D2  5007               	movf	(___flmul@a+2)^0,w,c
  2497  0006D4  0202               	mulwf	(___flmul@b+1)^0,c
  2498  0006D6  CFF3 F018          	movff	prodl,___flmul@temp
  2499  0006DA  CFF4 F019          	movff	prodh,___flmul@temp+1
  2500  0006DE  5018               	movf	___flmul@temp^0,w,c
  2501  0006E0  2614               	addwf	___flmul@prod^0,f,c
  2502  0006E2  5019               	movf	(___flmul@temp+1)^0,w,c
  2503  0006E4  2215               	addwfc	(___flmul@prod+1)^0,f,c
  2504  0006E6  0E00               	movlw	0
  2505  0006E8  2216               	addwfc	(___flmul@prod+2)^0,f,c
  2506  0006EA  0E00               	movlw	0
  2507  0006EC  2217               	addwfc	(___flmul@prod+3)^0,f,c
  2508  0006EE  5006               	movf	(___flmul@a+1)^0,w,c
  2509  0006F0  0203               	mulwf	(___flmul@b+2)^0,c
  2510  0006F2  CFF3 F018          	movff	prodl,___flmul@temp
  2511  0006F6  CFF4 F019          	movff	prodh,___flmul@temp+1
  2512  0006FA  5018               	movf	___flmul@temp^0,w,c
  2513  0006FC  2614               	addwf	___flmul@prod^0,f,c
  2514  0006FE  5019               	movf	(___flmul@temp+1)^0,w,c
  2515  000700  2215               	addwfc	(___flmul@prod+1)^0,f,c
  2516  000702  0E00               	movlw	0
  2517  000704  2216               	addwfc	(___flmul@prod+2)^0,f,c
  2518  000706  0E00               	movlw	0
  2519  000708  2217               	addwfc	(___flmul@prod+3)^0,f,c
  2520  00070A  5007               	movf	(___flmul@a+2)^0,w,c
  2521  00070C  0203               	mulwf	(___flmul@b+2)^0,c
  2522  00070E  CFF3 F018          	movff	prodl,___flmul@temp
  2523  000712  CFF4 F019          	movff	prodh,___flmul@temp+1
  2524  000716  5018               	movf	___flmul@temp^0,w,c
  2525  000718  6E09               	movwf	??___flmul^0,c
  2526  00071A  5019               	movf	(___flmul@temp+1)^0,w,c
  2527  00071C  6E0A               	movwf	(??___flmul+1)^0,c
  2528  00071E  6A0B               	clrf	(??___flmul+2)^0,c
  2529  000720  6A0C               	clrf	(??___flmul+3)^0,c
  2530  000722  C00B  F00C         	movff	??___flmul+2,??___flmul+3
  2531  000726  C00A  F00B         	movff	??___flmul+1,??___flmul+2
  2532  00072A  C009  F00A         	movff	??___flmul,??___flmul+1
  2533  00072E  6A09               	clrf	??___flmul^0,c
  2534  000730  5009               	movf	??___flmul^0,w,c
  2535  000732  2614               	addwf	___flmul@prod^0,f,c
  2536  000734  500A               	movf	(??___flmul+1)^0,w,c
  2537  000736  2215               	addwfc	(___flmul@prod+1)^0,f,c
  2538  000738  500B               	movf	(??___flmul+2)^0,w,c
  2539  00073A  2216               	addwfc	(___flmul@prod+2)^0,f,c
  2540  00073C  500C               	movf	(??___flmul+3)^0,w,c
  2541  00073E  2217               	addwfc	(___flmul@prod+3)^0,f,c
  2542  000740  C00E  F009         	movff	___flmul@grs,??___flmul
  2543  000744  C00F  F00A         	movff	___flmul@grs+1,??___flmul+1
  2544  000748  C010  F00B         	movff	___flmul@grs+2,??___flmul+2
  2545  00074C  C011  F00C         	movff	___flmul@grs+3,??___flmul+3
  2546  000750  0E19               	movlw	25
  2547  000752  EFB0  F003         	goto	u2140
  2548  000756                     u2145:
  2549  000756  90D8               	bcf	status,0,c
  2550  000758  320C               	rrcf	(??___flmul+3)^0,f,c
  2551  00075A  320B               	rrcf	(??___flmul+2)^0,f,c
  2552  00075C  320A               	rrcf	(??___flmul+1)^0,f,c
  2553  00075E  3209               	rrcf	??___flmul^0,f,c
  2554  000760                     u2140:
  2555  000760  2EE8               	decfsz	wreg,f,c
  2556  000762  EFAB  F003         	goto	u2145
  2557  000766  5009               	movf	??___flmul^0,w,c
  2558  000768  2614               	addwf	___flmul@prod^0,f,c
  2559  00076A  500A               	movf	(??___flmul+1)^0,w,c
  2560  00076C  2215               	addwfc	(___flmul@prod+1)^0,f,c
  2561  00076E  500B               	movf	(??___flmul+2)^0,w,c
  2562  000770  2216               	addwfc	(___flmul@prod+2)^0,f,c
  2563  000772  500C               	movf	(??___flmul+3)^0,w,c
  2564  000774  2217               	addwfc	(___flmul@prod+3)^0,f,c
  2565  000776  C010  F011         	movff	___flmul@grs+2,___flmul@grs+3
  2566  00077A  C00F  F010         	movff	___flmul@grs+1,___flmul@grs+2
  2567  00077E  C00E  F00F         	movff	___flmul@grs,___flmul@grs+1
  2568  000782  6A0E               	clrf	___flmul@grs^0,c
  2569  000784  5012               	movf	___flmul@aexp^0,w,c
  2570  000786  C013  F009         	movff	___flmul@bexp,??___flmul
  2571  00078A  6A0A               	clrf	(??___flmul+1)^0,c
  2572  00078C  2609               	addwf	??___flmul^0,f,c
  2573  00078E  0E00               	movlw	0
  2574  000790  220A               	addwfc	(??___flmul+1)^0,f,c
  2575  000792  0E82               	movlw	130
  2576  000794  2409               	addwf	??___flmul^0,w,c
  2577  000796  6E18               	movwf	___flmul@temp^0,c
  2578  000798  0EFF               	movlw	255
  2579  00079A  200A               	addwfc	(??___flmul+1)^0,w,c
  2580  00079C  6E19               	movwf	(___flmul@temp+1)^0,c
  2581  00079E  EFE6  F003         	goto	l2249
  2582  0007A2                     l2243:
  2583  0007A2  90D8               	bcf	status,0,c
  2584  0007A4  3614               	rlcf	___flmul@prod^0,f,c
  2585  0007A6  3615               	rlcf	(___flmul@prod+1)^0,f,c
  2586  0007A8  3616               	rlcf	(___flmul@prod+2)^0,f,c
  2587  0007AA  3617               	rlcf	(___flmul@prod+3)^0,f,c
  2588  0007AC  AE11               	btfss	(___flmul@grs+3)^0,7,c
  2589  0007AE  EFDB  F003         	goto	u2151
  2590  0007B2  EFDD  F003         	goto	u2150
  2591  0007B6                     u2151:
  2592  0007B6  EFDE  F003         	goto	l758
  2593  0007BA                     u2150:
  2594  0007BA  8014               	bsf	___flmul@prod^0,0,c
  2595  0007BC                     l758:
  2596  0007BC  90D8               	bcf	status,0,c
  2597  0007BE  360E               	rlcf	___flmul@grs^0,f,c
  2598  0007C0  360F               	rlcf	(___flmul@grs+1)^0,f,c
  2599  0007C2  3610               	rlcf	(___flmul@grs+2)^0,f,c
  2600  0007C4  3611               	rlcf	(___flmul@grs+3)^0,f,c
  2601  0007C6  0618               	decf	___flmul@temp^0,f,c
  2602  0007C8  A0D8               	btfss	status,0,c
  2603  0007CA  0619               	decf	(___flmul@temp+1)^0,f,c
  2604  0007CC                     l2249:
  2605  0007CC  AE16               	btfss	(___flmul@prod+2)^0,7,c
  2606  0007CE  EFEB  F003         	goto	u2161
  2607  0007D2  EFED  F003         	goto	u2160
  2608  0007D6                     u2161:
  2609  0007D6  EFD1  F003         	goto	l2243
  2610  0007DA                     u2160:
  2611  0007DA  0E00               	movlw	0
  2612  0007DC  6E12               	movwf	___flmul@aexp^0,c
  2613  0007DE  AE11               	btfss	(___flmul@grs+3)^0,7,c
  2614  0007E0  EFF4  F003         	goto	u2171
  2615  0007E4  EFF6  F003         	goto	u2170
  2616  0007E8                     u2171:
  2617  0007E8  EF1A  F004         	goto	l760
  2618  0007EC                     u2170:
  2619  0007EC  0EFF               	movlw	255
  2620  0007EE  140E               	andwf	___flmul@grs^0,w,c
  2621  0007F0  6E09               	movwf	??___flmul^0,c
  2622  0007F2  0EFF               	movlw	255
  2623  0007F4  140F               	andwf	(___flmul@grs+1)^0,w,c
  2624  0007F6  6E0A               	movwf	(??___flmul+1)^0,c
  2625  0007F8  0EFF               	movlw	255
  2626  0007FA  1410               	andwf	(___flmul@grs+2)^0,w,c
  2627  0007FC  6E0B               	movwf	(??___flmul+2)^0,c
  2628  0007FE  0E7F               	movlw	127
  2629  000800  1411               	andwf	(___flmul@grs+3)^0,w,c
  2630  000802  6E0C               	movwf	(??___flmul+3)^0,c
  2631  000804  5009               	movf	??___flmul^0,w,c
  2632  000806  100A               	iorwf	(??___flmul+1)^0,w,c
  2633  000808  100B               	iorwf	(??___flmul+2)^0,w,c
  2634  00080A  100C               	iorwf	(??___flmul+3)^0,w,c
  2635  00080C  B4D8               	btfsc	status,2,c
  2636  00080E  EF0B  F004         	goto	u2181
  2637  000812  EF0D  F004         	goto	u2180
  2638  000816                     u2181:
  2639  000816  EF11  F004         	goto	l761
  2640  00081A                     u2180:
  2641  00081A                     l2257:
  2642  00081A  0E01               	movlw	1
  2643  00081C  6E12               	movwf	___flmul@aexp^0,c
  2644  00081E  EF1A  F004         	goto	l760
  2645  000822                     l761:
  2646  000822  A014               	btfss	___flmul@prod^0,0,c
  2647  000824  EF16  F004         	goto	u2191
  2648  000828  EF18  F004         	goto	u2190
  2649  00082C                     u2191:
  2650  00082C  EF1A  F004         	goto	l760
  2651  000830                     u2190:
  2652  000830  EF0D  F004         	goto	l2257
  2653  000834                     l760:
  2654  000834  5012               	movf	___flmul@aexp^0,w,c
  2655  000836  B4D8               	btfsc	status,2,c
  2656  000838  EF20  F004         	goto	u2201
  2657  00083C  EF22  F004         	goto	u2200
  2658  000840                     u2201:
  2659  000840  EF46  F004         	goto	l2269
  2660  000844                     u2200:
  2661  000844  0E01               	movlw	1
  2662  000846  2614               	addwf	___flmul@prod^0,f,c
  2663  000848  0E00               	movlw	0
  2664  00084A  2215               	addwfc	(___flmul@prod+1)^0,f,c
  2665  00084C  2216               	addwfc	(___flmul@prod+2)^0,f,c
  2666  00084E  2217               	addwfc	(___flmul@prod+3)^0,f,c
  2667  000850  A017               	btfss	(___flmul@prod+3)^0,0,c
  2668  000852  EF2D  F004         	goto	u2211
  2669  000856  EF2F  F004         	goto	u2210
  2670  00085A                     u2211:
  2671  00085A  EF46  F004         	goto	l2269
  2672  00085E                     u2210:
  2673  00085E  C014  F009         	movff	___flmul@prod,??___flmul
  2674  000862  C015  F00A         	movff	___flmul@prod+1,??___flmul+1
  2675  000866  C016  F00B         	movff	___flmul@prod+2,??___flmul+2
  2676  00086A  C017  F00C         	movff	___flmul@prod+3,??___flmul+3
  2677  00086E  340C               	rlcf	(??___flmul+3)^0,w,c
  2678  000870  320C               	rrcf	(??___flmul+3)^0,f,c
  2679  000872  320B               	rrcf	(??___flmul+2)^0,f,c
  2680  000874  320A               	rrcf	(??___flmul+1)^0,f,c
  2681  000876  3209               	rrcf	??___flmul^0,f,c
  2682  000878  C009  F014         	movff	??___flmul,___flmul@prod
  2683  00087C  C00A  F015         	movff	??___flmul+1,___flmul@prod+1
  2684  000880  C00B  F016         	movff	??___flmul+2,___flmul@prod+2
  2685  000884  C00C  F017         	movff	??___flmul+3,___flmul@prod+3
  2686  000888  4A18               	infsnz	___flmul@temp^0,f,c
  2687  00088A  2A19               	incf	(___flmul@temp+1)^0,f,c
  2688  00088C                     l2269:
  2689  00088C  BE19               	btfsc	(___flmul@temp+1)^0,7,c
  2690  00088E  EF51  F004         	goto	u2221
  2691  000892  5019               	movf	(___flmul@temp+1)^0,w,c
  2692  000894  E108               	bnz	u2220
  2693  000896  2818               	incf	___flmul@temp^0,w,c
  2694  000898  A0D8               	btfss	status,0,c
  2695  00089A  EF51  F004         	goto	u2221
  2696  00089E  EF53  F004         	goto	u2220
  2697  0008A2                     u2221:
  2698  0008A2  EF5D  F004         	goto	l2273
  2699  0008A6                     u2220:
  2700  0008A6  0E00               	movlw	0
  2701  0008A8  6E14               	movwf	___flmul@prod^0,c
  2702  0008AA  0E00               	movlw	0
  2703  0008AC  6E15               	movwf	(___flmul@prod+1)^0,c
  2704  0008AE  0E80               	movlw	128
  2705  0008B0  6E16               	movwf	(___flmul@prod+2)^0,c
  2706  0008B2  0E7F               	movlw	127
  2707  0008B4  6E17               	movwf	(___flmul@prod+3)^0,c
  2708  0008B6  EF8B  F004         	goto	l2285
  2709  0008BA                     l2273:
  2710  0008BA  BE19               	btfsc	(___flmul@temp+1)^0,7,c
  2711  0008BC  EF6A  F004         	goto	u2230
  2712  0008C0  5019               	movf	(___flmul@temp+1)^0,w,c
  2713  0008C2  E106               	bnz	u2231
  2714  0008C4  0418               	decf	___flmul@temp^0,w,c
  2715  0008C6  B0D8               	btfsc	status,0,c
  2716  0008C8  EF68  F004         	goto	u2231
  2717  0008CC  EF6A  F004         	goto	u2230
  2718  0008D0                     u2231:
  2719  0008D0  EF76  F004         	goto	l768
  2720  0008D4                     u2230:
  2721  0008D4  0E00               	movlw	0
  2722  0008D6  6E14               	movwf	___flmul@prod^0,c
  2723  0008D8  0E00               	movlw	0
  2724  0008DA  6E15               	movwf	(___flmul@prod+1)^0,c
  2725  0008DC  0E00               	movlw	0
  2726  0008DE  6E16               	movwf	(___flmul@prod+2)^0,c
  2727  0008E0  0E00               	movlw	0
  2728  0008E2  6E17               	movwf	(___flmul@prod+3)^0,c
  2729  0008E4  0E00               	movlw	0
  2730  0008E6  6E0D               	movwf	___flmul@sign^0,c
  2731  0008E8  EF8B  F004         	goto	l2285
  2732  0008EC                     l768:
  2733  0008EC  C018  F013         	movff	___flmul@temp,___flmul@bexp
  2734  0008F0  0EFF               	movlw	255
  2735  0008F2  1614               	andwf	___flmul@prod^0,f,c
  2736  0008F4  0EFF               	movlw	255
  2737  0008F6  1615               	andwf	(___flmul@prod+1)^0,f,c
  2738  0008F8  0E7F               	movlw	127
  2739  0008FA  1616               	andwf	(___flmul@prod+2)^0,f,c
  2740  0008FC  0E00               	movlw	0
  2741  0008FE  1617               	andwf	(___flmul@prod+3)^0,f,c
  2742  000900  A013               	btfss	___flmul@bexp^0,0,c
  2743  000902  EF85  F004         	goto	u2241
  2744  000906  EF87  F004         	goto	u2240
  2745  00090A                     u2241:
  2746  00090A  EF88  F004         	goto	l2283
  2747  00090E                     u2240:
  2748  00090E  8E16               	bsf	(___flmul@prod+2)^0,7,c
  2749  000910                     l2283:
  2750  000910  90D8               	bcf	status,0,c
  2751  000912  3013               	rrcf	___flmul@bexp^0,w,c
  2752  000914  6E17               	movwf	(___flmul@prod+3)^0,c
  2753  000916                     l2285:
  2754  000916  500D               	movf	___flmul@sign^0,w,c
  2755  000918  1217               	iorwf	(___flmul@prod+3)^0,f,c
  2756  00091A  C014  F001         	movff	___flmul@prod,?___flmul
  2757  00091E  C015  F002         	movff	___flmul@prod+1,?___flmul+1
  2758  000922  C016  F003         	movff	___flmul@prod+2,?___flmul+2
  2759  000926  C017  F004         	movff	___flmul@prod+3,?___flmul+3
  2760  00092A                     l755:
  2761  00092A  0012               	return		;funcret
  2762  00092C                     __end_of___flmul:
  2763                           	callstack 0
  2764                           
  2765 ;; *************** function ___flge *****************
  2766 ;; Defined at:
  2767 ;;		line 4 in file "C:\Program Files\Microchip\xc8\v2.30\pic\sources\c99\common\flge.c"
  2768 ;; Parameters:    Size  Location     Type
  2769 ;;  ff1             4    0[COMRAM] unsigned char 
  2770 ;;  ff2             4    4[COMRAM] unsigned char 
  2771 ;; Auto vars:     Size  Location     Type
  2772 ;;		None
  2773 ;; Return value:  Size  Location     Type
  2774 ;;		None               void
  2775 ;; Registers used:
  2776 ;;		wreg, status,2, status,0
  2777 ;; Tracked objects:
  2778 ;;		On entry : 0/0
  2779 ;;		On exit  : 0/0
  2780 ;;		Unchanged: 0/0
  2781 ;; Data sizes:     COMRAM   BANK0   BANK1   BANK2   BANK3   BANK4   BANK5
  2782 ;;      Params:         8       0       0       0       0       0       0
  2783 ;;      Locals:         0       0       0       0       0       0       0
  2784 ;;      Temps:          4       0       0       0       0       0       0
  2785 ;;      Totals:        12       0       0       0       0       0       0
  2786 ;;Total ram usage:       12 bytes
  2787 ;; Hardware stack levels used:    1
  2788 ;; Hardware stack levels required when called:    2
  2789 ;; This function calls:
  2790 ;;		Nothing
  2791 ;; This function is called by:
  2792 ;;		_main
  2793 ;; This function uses a non-reentrant model
  2794 ;;
  2795                           
  2796                           	psect	text16
  2797  0012DA                     __ptext16:
  2798                           	callstack 0
  2799  0012DA                     ___flge:
  2800                           	callstack 28
  2801  0012DA  0E00               	movlw	0
  2802  0012DC  1401               	andwf	___flge@ff1^0,w,c
  2803  0012DE  6E09               	movwf	??___flge^0,c
  2804  0012E0  0E00               	movlw	0
  2805  0012E2  1402               	andwf	(___flge@ff1+1)^0,w,c
  2806  0012E4  6E0A               	movwf	(??___flge+1)^0,c
  2807  0012E6  0E80               	movlw	128
  2808  0012E8  1403               	andwf	(___flge@ff1+2)^0,w,c
  2809  0012EA  6E0B               	movwf	(??___flge+2)^0,c
  2810  0012EC  0E7F               	movlw	127
  2811  0012EE  1404               	andwf	(___flge@ff1+3)^0,w,c
  2812  0012F0  6E0C               	movwf	(??___flge+3)^0,c
  2813  0012F2  5009               	movf	??___flge^0,w,c
  2814  0012F4  100A               	iorwf	(??___flge+1)^0,w,c
  2815  0012F6  100B               	iorwf	(??___flge+2)^0,w,c
  2816  0012F8  100C               	iorwf	(??___flge+3)^0,w,c
  2817  0012FA  A4D8               	btfss	status,2,c
  2818  0012FC  EF82  F009         	goto	u2251
  2819  001300  EF84  F009         	goto	u2250
  2820  001304                     u2251:
  2821  001304  EF8C  F009         	goto	l2295
  2822  001308                     u2250:
  2823  001308  0E00               	movlw	0
  2824  00130A  6E01               	movwf	___flge@ff1^0,c
  2825  00130C  0E00               	movlw	0
  2826  00130E  6E02               	movwf	(___flge@ff1+1)^0,c
  2827  001310  0E00               	movlw	0
  2828  001312  6E03               	movwf	(___flge@ff1+2)^0,c
  2829  001314  0E00               	movlw	0
  2830  001316  6E04               	movwf	(___flge@ff1+3)^0,c
  2831  001318                     l2295:
  2832  001318  0E00               	movlw	0
  2833  00131A  1405               	andwf	___flge@ff2^0,w,c
  2834  00131C  6E09               	movwf	??___flge^0,c
  2835  00131E  0E00               	movlw	0
  2836  001320  1406               	andwf	(___flge@ff2+1)^0,w,c
  2837  001322  6E0A               	movwf	(??___flge+1)^0,c
  2838  001324  0E80               	movlw	128
  2839  001326  1407               	andwf	(___flge@ff2+2)^0,w,c
  2840  001328  6E0B               	movwf	(??___flge+2)^0,c
  2841  00132A  0E7F               	movlw	127
  2842  00132C  1408               	andwf	(___flge@ff2+3)^0,w,c
  2843  00132E  6E0C               	movwf	(??___flge+3)^0,c
  2844  001330  5009               	movf	??___flge^0,w,c
  2845  001332  100A               	iorwf	(??___flge+1)^0,w,c
  2846  001334  100B               	iorwf	(??___flge+2)^0,w,c
  2847  001336  100C               	iorwf	(??___flge+3)^0,w,c
  2848  001338  A4D8               	btfss	status,2,c
  2849  00133A  EFA1  F009         	goto	u2261
  2850  00133E  EFA3  F009         	goto	u2260
  2851  001342                     u2261:
  2852  001342  EFAB  F009         	goto	l2299
  2853  001346                     u2260:
  2854  001346  0E00               	movlw	0
  2855  001348  6E05               	movwf	___flge@ff2^0,c
  2856  00134A  0E00               	movlw	0
  2857  00134C  6E06               	movwf	(___flge@ff2+1)^0,c
  2858  00134E  0E00               	movlw	0
  2859  001350  6E07               	movwf	(___flge@ff2+2)^0,c
  2860  001352  0E00               	movlw	0
  2861  001354  6E08               	movwf	(___flge@ff2+3)^0,c
  2862  001356                     l2299:
  2863  001356  AE04               	btfss	(___flge@ff1+3)^0,7,c
  2864  001358  EFB0  F009         	goto	u2271
  2865  00135C  EFB2  F009         	goto	u2270
  2866  001360                     u2271:
  2867  001360  EFBB  F009         	goto	l2303
  2868  001364                     u2270:
  2869  001364  6C01               	negf	___flge@ff1^0,c
  2870  001366  1E02               	comf	(___flge@ff1+1)^0,f,c
  2871  001368  B0D8               	btfsc	status,0,c
  2872  00136A  2A02               	incf	(___flge@ff1+1)^0,f,c
  2873  00136C  1E03               	comf	(___flge@ff1+2)^0,f,c
  2874  00136E  B0D8               	btfsc	status,0,c
  2875  001370  2A03               	incf	(___flge@ff1+2)^0,f,c
  2876  001372  0E80               	movlw	128
  2877  001374  5604               	subfwb	(___flge@ff1+3)^0,f,c
  2878  001376                     l2303:
  2879  001376  AE08               	btfss	(___flge@ff2+3)^0,7,c
  2880  001378  EFC0  F009         	goto	u2281
  2881  00137C  EFC2  F009         	goto	u2280
  2882  001380                     u2281:
  2883  001380  EFCB  F009         	goto	l402
  2884  001384                     u2280:
  2885  001384  6C05               	negf	___flge@ff2^0,c
  2886  001386  1E06               	comf	(___flge@ff2+1)^0,f,c
  2887  001388  B0D8               	btfsc	status,0,c
  2888  00138A  2A06               	incf	(___flge@ff2+1)^0,f,c
  2889  00138C  1E07               	comf	(___flge@ff2+2)^0,f,c
  2890  00138E  B0D8               	btfsc	status,0,c
  2891  001390  2A07               	incf	(___flge@ff2+2)^0,f,c
  2892  001392  0E80               	movlw	128
  2893  001394  5608               	subfwb	(___flge@ff2+3)^0,f,c
  2894  001396                     l402:
  2895  001396  0E00               	movlw	0
  2896  001398  1A01               	xorwf	___flge@ff1^0,f,c
  2897  00139A  0E00               	movlw	0
  2898  00139C  1A02               	xorwf	(___flge@ff1+1)^0,f,c
  2899  00139E  0E00               	movlw	0
  2900  0013A0  1A03               	xorwf	(___flge@ff1+2)^0,f,c
  2901  0013A2  0E80               	movlw	128
  2902  0013A4  1A04               	xorwf	(___flge@ff1+3)^0,f,c
  2903  0013A6  0E00               	movlw	0
  2904  0013A8  1A05               	xorwf	___flge@ff2^0,f,c
  2905  0013AA  0E00               	movlw	0
  2906  0013AC  1A06               	xorwf	(___flge@ff2+1)^0,f,c
  2907  0013AE  0E00               	movlw	0
  2908  0013B0  1A07               	xorwf	(___flge@ff2+2)^0,f,c
  2909  0013B2  0E80               	movlw	128
  2910  0013B4  1A08               	xorwf	(___flge@ff2+3)^0,f,c
  2911  0013B6  5005               	movf	___flge@ff2^0,w,c
  2912  0013B8  5C01               	subwf	___flge@ff1^0,w,c
  2913  0013BA  5006               	movf	(___flge@ff2+1)^0,w,c
  2914  0013BC  5802               	subwfb	(___flge@ff1+1)^0,w,c
  2915  0013BE  5007               	movf	(___flge@ff2+2)^0,w,c
  2916  0013C0  5803               	subwfb	(___flge@ff1+2)^0,w,c
  2917  0013C2  5008               	movf	(___flge@ff2+3)^0,w,c
  2918  0013C4  5804               	subwfb	(___flge@ff1+3)^0,w,c
  2919  0013C6  B0D8               	btfsc	status,0,c
  2920  0013C8  EFE8  F009         	goto	u2291
  2921  0013CC  EFEA  F009         	goto	u2290
  2922  0013D0                     u2291:
  2923  0013D0  EFED  F009         	goto	l2309
  2924  0013D4                     u2290:
  2925  0013D4  90D8               	bcf	status,0,c
  2926  0013D6  EFEE  F009         	goto	l407
  2927  0013DA                     l2309:
  2928  0013DA  80D8               	bsf	status,0,c
  2929  0013DC                     l407:
  2930  0013DC  0012               	return		;funcret
  2931  0013DE                     __end_of___flge:
  2932                           	callstack 0
  2933                           
  2934 ;; *************** function ___fldiv *****************
  2935 ;; Defined at:
  2936 ;;		line 11 in file "C:\Program Files\Microchip\xc8\v2.30\pic\sources\c99\common\sprcdiv.c"
  2937 ;; Parameters:    Size  Location     Type
  2938 ;;  b               4   25[COMRAM] unsigned char 
  2939 ;;  a               4   29[COMRAM] unsigned char 
  2940 ;; Auto vars:     Size  Location     Type
  2941 ;;  grs             4   44[COMRAM] unsigned long 
  2942 ;;  rem             4   37[COMRAM] unsigned long 
  2943 ;;  new_exp         2   42[COMRAM] short 
  2944 ;;  aexp            1   49[COMRAM] unsigned char 
  2945 ;;  bexp            1   48[COMRAM] unsigned char 
  2946 ;;  sign            1   41[COMRAM] unsigned char 
  2947 ;; Return value:  Size  Location     Type
  2948 ;;                  4   25[COMRAM] unsigned char 
  2949 ;; Registers used:
  2950 ;;		wreg, status,2, status,0
  2951 ;; Tracked objects:
  2952 ;;		On entry : 0/0
  2953 ;;		On exit  : 0/0
  2954 ;;		Unchanged: 0/0
  2955 ;; Data sizes:     COMRAM   BANK0   BANK1   BANK2   BANK3   BANK4   BANK5
  2956 ;;      Params:         8       0       0       0       0       0       0
  2957 ;;      Locals:        13       0       0       0       0       0       0
  2958 ;;      Temps:          4       0       0       0       0       0       0
  2959 ;;      Totals:        25       0       0       0       0       0       0
  2960 ;;Total ram usage:       25 bytes
  2961 ;; Hardware stack levels used:    1
  2962 ;; Hardware stack levels required when called:    2
  2963 ;; This function calls:
  2964 ;;		Nothing
  2965 ;; This function is called by:
  2966 ;;		_main
  2967 ;; This function uses a non-reentrant model
  2968 ;;
  2969                           
  2970                           	psect	text17
  2971  00092C                     __ptext17:
  2972                           	callstack 0
  2973  00092C                     ___fldiv:
  2974                           	callstack 28
  2975  00092C  501D               	movf	(___fldiv@b+3)^0,w,c
  2976  00092E  0B80               	andlw	128
  2977  000930  6E2A               	movwf	___fldiv@sign^0,c
  2978  000932  501D               	movf	(___fldiv@b+3)^0,w,c
  2979  000934  241D               	addwf	(___fldiv@b+3)^0,w,c
  2980  000936  6E31               	movwf	___fldiv@bexp^0,c
  2981  000938  AE1C               	btfss	(___fldiv@b+2)^0,7,c
  2982  00093A  EFA1  F004         	goto	u1831
  2983  00093E  EFA3  F004         	goto	u1830
  2984  000942                     u1831:
  2985  000942  EFA4  F004         	goto	l2029
  2986  000946                     u1830:
  2987  000946  8031               	bsf	___fldiv@bexp^0,0,c
  2988  000948                     l2029:
  2989  000948  5031               	movf	___fldiv@bexp^0,w,c
  2990  00094A  B4D8               	btfsc	status,2,c
  2991  00094C  EFAA  F004         	goto	u1841
  2992  000950  EFAC  F004         	goto	u1840
  2993  000954                     u1841:
  2994  000954  EFC1  F004         	goto	l2039
  2995  000958                     u1840:
  2996  000958  2831               	incf	___fldiv@bexp^0,w,c
  2997  00095A  A4D8               	btfss	status,2,c
  2998  00095C  EFB2  F004         	goto	u1851
  2999  000960  EFB4  F004         	goto	u1850
  3000  000964                     u1851:
  3001  000964  EFBC  F004         	goto	l2035
  3002  000968                     u1850:
  3003  000968  0E00               	movlw	0
  3004  00096A  6E1A               	movwf	___fldiv@b^0,c
  3005  00096C  0E00               	movlw	0
  3006  00096E  6E1B               	movwf	(___fldiv@b+1)^0,c
  3007  000970  0E00               	movlw	0
  3008  000972  6E1C               	movwf	(___fldiv@b+2)^0,c
  3009  000974  0E00               	movlw	0
  3010  000976  6E1D               	movwf	(___fldiv@b+3)^0,c
  3011  000978                     l2035:
  3012  000978  8E1C               	bsf	(___fldiv@b+2)^0,7,c
  3013  00097A  0E00               	movlw	0
  3014  00097C  6E1D               	movwf	(___fldiv@b+3)^0,c
  3015  00097E  EFC9  F004         	goto	l2041
  3016  000982                     l2039:
  3017  000982  0E00               	movlw	0
  3018  000984  6E1A               	movwf	___fldiv@b^0,c
  3019  000986  0E00               	movlw	0
  3020  000988  6E1B               	movwf	(___fldiv@b+1)^0,c
  3021  00098A  0E00               	movlw	0
  3022  00098C  6E1C               	movwf	(___fldiv@b+2)^0,c
  3023  00098E  0E00               	movlw	0
  3024  000990  6E1D               	movwf	(___fldiv@b+3)^0,c
  3025  000992                     l2041:
  3026  000992  5021               	movf	(___fldiv@a+3)^0,w,c
  3027  000994  0B80               	andlw	128
  3028  000996  1A2A               	xorwf	___fldiv@sign^0,f,c
  3029  000998  5021               	movf	(___fldiv@a+3)^0,w,c
  3030  00099A  2421               	addwf	(___fldiv@a+3)^0,w,c
  3031  00099C  6E32               	movwf	___fldiv@aexp^0,c
  3032  00099E  AE20               	btfss	(___fldiv@a+2)^0,7,c
  3033  0009A0  EFD4  F004         	goto	u1861
  3034  0009A4  EFD6  F004         	goto	u1860
  3035  0009A8                     u1861:
  3036  0009A8  EFD7  F004         	goto	l2049
  3037  0009AC                     u1860:
  3038  0009AC  8032               	bsf	___fldiv@aexp^0,0,c
  3039  0009AE                     l2049:
  3040  0009AE  5032               	movf	___fldiv@aexp^0,w,c
  3041  0009B0  B4D8               	btfsc	status,2,c
  3042  0009B2  EFDD  F004         	goto	u1871
  3043  0009B6  EFDF  F004         	goto	u1870
  3044  0009BA                     u1871:
  3045  0009BA  EFF4  F004         	goto	l2059
  3046  0009BE                     u1870:
  3047  0009BE  2832               	incf	___fldiv@aexp^0,w,c
  3048  0009C0  A4D8               	btfss	status,2,c
  3049  0009C2  EFE5  F004         	goto	u1881
  3050  0009C6  EFE7  F004         	goto	u1880
  3051  0009CA                     u1881:
  3052  0009CA  EFEF  F004         	goto	l2055
  3053  0009CE                     u1880:
  3054  0009CE  0E00               	movlw	0
  3055  0009D0  6E1E               	movwf	___fldiv@a^0,c
  3056  0009D2  0E00               	movlw	0
  3057  0009D4  6E1F               	movwf	(___fldiv@a+1)^0,c
  3058  0009D6  0E00               	movlw	0
  3059  0009D8  6E20               	movwf	(___fldiv@a+2)^0,c
  3060  0009DA  0E00               	movlw	0
  3061  0009DC  6E21               	movwf	(___fldiv@a+3)^0,c
  3062  0009DE                     l2055:
  3063  0009DE  8E20               	bsf	(___fldiv@a+2)^0,7,c
  3064  0009E0  0E00               	movlw	0
  3065  0009E2  6E21               	movwf	(___fldiv@a+3)^0,c
  3066  0009E4  EFFC  F004         	goto	l2061
  3067  0009E8                     l2059:
  3068  0009E8  0E00               	movlw	0
  3069  0009EA  6E1E               	movwf	___fldiv@a^0,c
  3070  0009EC  0E00               	movlw	0
  3071  0009EE  6E1F               	movwf	(___fldiv@a+1)^0,c
  3072  0009F0  0E00               	movlw	0
  3073  0009F2  6E20               	movwf	(___fldiv@a+2)^0,c
  3074  0009F4  0E00               	movlw	0
  3075  0009F6  6E21               	movwf	(___fldiv@a+3)^0,c
  3076  0009F8                     l2061:
  3077  0009F8  501E               	movf	___fldiv@a^0,w,c
  3078  0009FA  101F               	iorwf	(___fldiv@a+1)^0,w,c
  3079  0009FC  1020               	iorwf	(___fldiv@a+2)^0,w,c
  3080  0009FE  1021               	iorwf	(___fldiv@a+3)^0,w,c
  3081  000A00  A4D8               	btfss	status,2,c
  3082  000A02  EF05  F005         	goto	u1891
  3083  000A06  EF07  F005         	goto	u1890
  3084  000A0A                     u1891:
  3085  000A0A  EF1F  F005         	goto	l2073
  3086  000A0E                     u1890:
  3087  000A0E  0E00               	movlw	0
  3088  000A10  6E1A               	movwf	___fldiv@b^0,c
  3089  000A12  0E00               	movlw	0
  3090  000A14  6E1B               	movwf	(___fldiv@b+1)^0,c
  3091  000A16  0E00               	movlw	0
  3092  000A18  6E1C               	movwf	(___fldiv@b+2)^0,c
  3093  000A1A  0E00               	movlw	0
  3094  000A1C  6E1D               	movwf	(___fldiv@b+3)^0,c
  3095  000A1E  0E80               	movlw	128
  3096  000A20  121C               	iorwf	(___fldiv@b+2)^0,f,c
  3097  000A22  0E7F               	movlw	127
  3098  000A24  121D               	iorwf	(___fldiv@b+3)^0,f,c
  3099  000A26                     l2067:
  3100  000A26  502A               	movf	___fldiv@sign^0,w,c
  3101  000A28  121D               	iorwf	(___fldiv@b+3)^0,f,c
  3102  000A2A  C01A  F01A         	movff	___fldiv@b,?___fldiv
  3103  000A2E  C01B  F01B         	movff	___fldiv@b+1,?___fldiv+1
  3104  000A32  C01C  F01C         	movff	___fldiv@b+2,?___fldiv+2
  3105  000A36  C01D  F01D         	movff	___fldiv@b+3,?___fldiv+3
  3106  000A3A  EF62  F006         	goto	l719
  3107  000A3E                     l2073:
  3108  000A3E  5031               	movf	___fldiv@bexp^0,w,c
  3109  000A40  A4D8               	btfss	status,2,c
  3110  000A42  EF25  F005         	goto	u1901
  3111  000A46  EF27  F005         	goto	u1900
  3112  000A4A                     u1901:
  3113  000A4A  EF31  F005         	goto	l2081
  3114  000A4E                     u1900:
  3115  000A4E  0E00               	movlw	0
  3116  000A50  6E1A               	movwf	?___fldiv^0,c
  3117  000A52  0E00               	movlw	0
  3118  000A54  6E1B               	movwf	(?___fldiv+1)^0,c
  3119  000A56  0E00               	movlw	0
  3120  000A58  6E1C               	movwf	(?___fldiv+2)^0,c
  3121  000A5A  0E00               	movlw	0
  3122  000A5C  6E1D               	movwf	(?___fldiv+3)^0,c
  3123  000A5E  EF62  F006         	goto	l719
  3124  000A62                     l2081:
  3125  000A62  5032               	movf	___fldiv@aexp^0,w,c
  3126  000A64  C031  F022         	movff	___fldiv@bexp,??___fldiv
  3127  000A68  6A23               	clrf	(??___fldiv+1)^0,c
  3128  000A6A  5E22               	subwf	??___fldiv^0,f,c
  3129  000A6C  0E00               	movlw	0
  3130  000A6E  5A23               	subwfb	(??___fldiv+1)^0,f,c
  3131  000A70  0E7F               	movlw	127
  3132  000A72  2422               	addwf	??___fldiv^0,w,c
  3133  000A74  6E2B               	movwf	___fldiv@new_exp^0,c
  3134  000A76  0E00               	movlw	0
  3135  000A78  2023               	addwfc	(??___fldiv+1)^0,w,c
  3136  000A7A  6E2C               	movwf	(___fldiv@new_exp+1)^0,c
  3137  000A7C  C01A  F026         	movff	___fldiv@b,___fldiv@rem
  3138  000A80  C01B  F027         	movff	___fldiv@b+1,___fldiv@rem+1
  3139  000A84  C01C  F028         	movff	___fldiv@b+2,___fldiv@rem+2
  3140  000A88  C01D  F029         	movff	___fldiv@b+3,___fldiv@rem+3
  3141  000A8C  0E00               	movlw	0
  3142  000A8E  6E1A               	movwf	___fldiv@b^0,c
  3143  000A90  0E00               	movlw	0
  3144  000A92  6E1B               	movwf	(___fldiv@b+1)^0,c
  3145  000A94  0E00               	movlw	0
  3146  000A96  6E1C               	movwf	(___fldiv@b+2)^0,c
  3147  000A98  0E00               	movlw	0
  3148  000A9A  6E1D               	movwf	(___fldiv@b+3)^0,c
  3149  000A9C  0E00               	movlw	0
  3150  000A9E  6E2D               	movwf	___fldiv@grs^0,c
  3151  000AA0  0E00               	movlw	0
  3152  000AA2  6E2E               	movwf	(___fldiv@grs+1)^0,c
  3153  000AA4  0E00               	movlw	0
  3154  000AA6  6E2F               	movwf	(___fldiv@grs+2)^0,c
  3155  000AA8  0E00               	movlw	0
  3156  000AAA  6E30               	movwf	(___fldiv@grs+3)^0,c
  3157  000AAC  0E00               	movlw	0
  3158  000AAE  6E32               	movwf	___fldiv@aexp^0,c
  3159  000AB0  EF92  F005         	goto	l721
  3160  000AB4                     l2091:
  3161  000AB4  5032               	movf	___fldiv@aexp^0,w,c
  3162  000AB6  B4D8               	btfsc	status,2,c
  3163  000AB8  EF60  F005         	goto	u1911
  3164  000ABC  EF62  F005         	goto	u1910
  3165  000AC0                     u1911:
  3166  000AC0  EF79  F005         	goto	l2099
  3167  000AC4                     u1910:
  3168  000AC4  90D8               	bcf	status,0,c
  3169  000AC6  3626               	rlcf	___fldiv@rem^0,f,c
  3170  000AC8  3627               	rlcf	(___fldiv@rem+1)^0,f,c
  3171  000ACA  3628               	rlcf	(___fldiv@rem+2)^0,f,c
  3172  000ACC  3629               	rlcf	(___fldiv@rem+3)^0,f,c
  3173  000ACE  90D8               	bcf	status,0,c
  3174  000AD0  361A               	rlcf	___fldiv@b^0,f,c
  3175  000AD2  361B               	rlcf	(___fldiv@b+1)^0,f,c
  3176  000AD4  361C               	rlcf	(___fldiv@b+2)^0,f,c
  3177  000AD6  361D               	rlcf	(___fldiv@b+3)^0,f,c
  3178  000AD8  AE30               	btfss	(___fldiv@grs+3)^0,7,c
  3179  000ADA  EF71  F005         	goto	u1921
  3180  000ADE  EF73  F005         	goto	u1920
  3181  000AE2                     u1921:
  3182  000AE2  EF74  F005         	goto	l724
  3183  000AE6                     u1920:
  3184  000AE6  801A               	bsf	___fldiv@b^0,0,c
  3185  000AE8                     l724:
  3186  000AE8  90D8               	bcf	status,0,c
  3187  000AEA  362D               	rlcf	___fldiv@grs^0,f,c
  3188  000AEC  362E               	rlcf	(___fldiv@grs+1)^0,f,c
  3189  000AEE  362F               	rlcf	(___fldiv@grs+2)^0,f,c
  3190  000AF0  3630               	rlcf	(___fldiv@grs+3)^0,f,c
  3191  000AF2                     l2099:
  3192  000AF2  501E               	movf	___fldiv@a^0,w,c
  3193  000AF4  5C26               	subwf	___fldiv@rem^0,w,c
  3194  000AF6  501F               	movf	(___fldiv@a+1)^0,w,c
  3195  000AF8  5827               	subwfb	(___fldiv@rem+1)^0,w,c
  3196  000AFA  5020               	movf	(___fldiv@a+2)^0,w,c
  3197  000AFC  5828               	subwfb	(___fldiv@rem+2)^0,w,c
  3198  000AFE  5021               	movf	(___fldiv@a+3)^0,w,c
  3199  000B00  5829               	subwfb	(___fldiv@rem+3)^0,w,c
  3200  000B02  A0D8               	btfss	status,0,c
  3201  000B04  EF86  F005         	goto	u1931
  3202  000B08  EF88  F005         	goto	u1930
  3203  000B0C                     u1931:
  3204  000B0C  EF91  F005         	goto	l2105
  3205  000B10                     u1930:
  3206  000B10  8C30               	bsf	(___fldiv@grs+3)^0,6,c
  3207  000B12  501E               	movf	___fldiv@a^0,w,c
  3208  000B14  5E26               	subwf	___fldiv@rem^0,f,c
  3209  000B16  501F               	movf	(___fldiv@a+1)^0,w,c
  3210  000B18  5A27               	subwfb	(___fldiv@rem+1)^0,f,c
  3211  000B1A  5020               	movf	(___fldiv@a+2)^0,w,c
  3212  000B1C  5A28               	subwfb	(___fldiv@rem+2)^0,f,c
  3213  000B1E  5021               	movf	(___fldiv@a+3)^0,w,c
  3214  000B20  5A29               	subwfb	(___fldiv@rem+3)^0,f,c
  3215  000B22                     l2105:
  3216  000B22  2A32               	incf	___fldiv@aexp^0,f,c
  3217  000B24                     l721:
  3218  000B24  0E19               	movlw	25
  3219  000B26  6432               	cpfsgt	___fldiv@aexp^0,c
  3220  000B28  EF98  F005         	goto	u1941
  3221  000B2C  EF9A  F005         	goto	u1940
  3222  000B30                     u1941:
  3223  000B30  EF5A  F005         	goto	l2091
  3224  000B34                     u1940:
  3225  000B34  5026               	movf	___fldiv@rem^0,w,c
  3226  000B36  1027               	iorwf	(___fldiv@rem+1)^0,w,c
  3227  000B38  1028               	iorwf	(___fldiv@rem+2)^0,w,c
  3228  000B3A  1029               	iorwf	(___fldiv@rem+3)^0,w,c
  3229  000B3C  B4D8               	btfsc	status,2,c
  3230  000B3E  EFA3  F005         	goto	u1951
  3231  000B42  EFA5  F005         	goto	u1950
  3232  000B46                     u1951:
  3233  000B46  EFBD  F005         	goto	l2117
  3234  000B4A                     u1950:
  3235  000B4A  802D               	bsf	___fldiv@grs^0,0,c
  3236  000B4C  EFBD  F005         	goto	l2117
  3237  000B50                     l2111:
  3238  000B50  90D8               	bcf	status,0,c
  3239  000B52  361A               	rlcf	___fldiv@b^0,f,c
  3240  000B54  361B               	rlcf	(___fldiv@b+1)^0,f,c
  3241  000B56  361C               	rlcf	(___fldiv@b+2)^0,f,c
  3242  000B58  361D               	rlcf	(___fldiv@b+3)^0,f,c
  3243  000B5A  AE30               	btfss	(___fldiv@grs+3)^0,7,c
  3244  000B5C  EFB2  F005         	goto	u1961
  3245  000B60  EFB4  F005         	goto	u1960
  3246  000B64                     u1961:
  3247  000B64  EFB5  F005         	goto	l730
  3248  000B68                     u1960:
  3249  000B68  801A               	bsf	___fldiv@b^0,0,c
  3250  000B6A                     l730:
  3251  000B6A  90D8               	bcf	status,0,c
  3252  000B6C  362D               	rlcf	___fldiv@grs^0,f,c
  3253  000B6E  362E               	rlcf	(___fldiv@grs+1)^0,f,c
  3254  000B70  362F               	rlcf	(___fldiv@grs+2)^0,f,c
  3255  000B72  3630               	rlcf	(___fldiv@grs+3)^0,f,c
  3256  000B74  062B               	decf	___fldiv@new_exp^0,f,c
  3257  000B76  A0D8               	btfss	status,0,c
  3258  000B78  062C               	decf	(___fldiv@new_exp+1)^0,f,c
  3259  000B7A                     l2117:
  3260  000B7A  AE1C               	btfss	(___fldiv@b+2)^0,7,c
  3261  000B7C  EFC2  F005         	goto	u1971
  3262  000B80  EFC4  F005         	goto	u1970
  3263  000B84                     u1971:
  3264  000B84  EFA8  F005         	goto	l2111
  3265  000B88                     u1970:
  3266  000B88  0E00               	movlw	0
  3267  000B8A  6E32               	movwf	___fldiv@aexp^0,c
  3268  000B8C  AE30               	btfss	(___fldiv@grs+3)^0,7,c
  3269  000B8E  EFCB  F005         	goto	u1981
  3270  000B92  EFCD  F005         	goto	u1980
  3271  000B96                     u1981:
  3272  000B96  EFF1  F005         	goto	l732
  3273  000B9A                     u1980:
  3274  000B9A  0EFF               	movlw	255
  3275  000B9C  142D               	andwf	___fldiv@grs^0,w,c
  3276  000B9E  6E22               	movwf	??___fldiv^0,c
  3277  000BA0  0EFF               	movlw	255
  3278  000BA2  142E               	andwf	(___fldiv@grs+1)^0,w,c
  3279  000BA4  6E23               	movwf	(??___fldiv+1)^0,c
  3280  000BA6  0EFF               	movlw	255
  3281  000BA8  142F               	andwf	(___fldiv@grs+2)^0,w,c
  3282  000BAA  6E24               	movwf	(??___fldiv+2)^0,c
  3283  000BAC  0E7F               	movlw	127
  3284  000BAE  1430               	andwf	(___fldiv@grs+3)^0,w,c
  3285  000BB0  6E25               	movwf	(??___fldiv+3)^0,c
  3286  000BB2  5022               	movf	??___fldiv^0,w,c
  3287  000BB4  1023               	iorwf	(??___fldiv+1)^0,w,c
  3288  000BB6  1024               	iorwf	(??___fldiv+2)^0,w,c
  3289  000BB8  1025               	iorwf	(??___fldiv+3)^0,w,c
  3290  000BBA  B4D8               	btfsc	status,2,c
  3291  000BBC  EFE2  F005         	goto	u1991
  3292  000BC0  EFE4  F005         	goto	u1990
  3293  000BC4                     u1991:
  3294  000BC4  EFE8  F005         	goto	l733
  3295  000BC8                     u1990:
  3296  000BC8                     l2125:
  3297  000BC8  0E01               	movlw	1
  3298  000BCA  6E32               	movwf	___fldiv@aexp^0,c
  3299  000BCC  EFF1  F005         	goto	l732
  3300  000BD0                     l733:
  3301  000BD0  A01A               	btfss	___fldiv@b^0,0,c
  3302  000BD2  EFED  F005         	goto	u2001
  3303  000BD6  EFEF  F005         	goto	u2000
  3304  000BDA                     u2001:
  3305  000BDA  EFF1  F005         	goto	l732
  3306  000BDE                     u2000:
  3307  000BDE  EFE4  F005         	goto	l2125
  3308  000BE2                     l732:
  3309  000BE2  5032               	movf	___fldiv@aexp^0,w,c
  3310  000BE4  B4D8               	btfsc	status,2,c
  3311  000BE6  EFF7  F005         	goto	u2011
  3312  000BEA  EFF9  F005         	goto	u2010
  3313  000BEE                     u2011:
  3314  000BEE  EF1D  F006         	goto	l2137
  3315  000BF2                     u2010:
  3316  000BF2  0E01               	movlw	1
  3317  000BF4  261A               	addwf	___fldiv@b^0,f,c
  3318  000BF6  0E00               	movlw	0
  3319  000BF8  221B               	addwfc	(___fldiv@b+1)^0,f,c
  3320  000BFA  221C               	addwfc	(___fldiv@b+2)^0,f,c
  3321  000BFC  221D               	addwfc	(___fldiv@b+3)^0,f,c
  3322  000BFE  A01D               	btfss	(___fldiv@b+3)^0,0,c
  3323  000C00  EF04  F006         	goto	u2021
  3324  000C04  EF06  F006         	goto	u2020
  3325  000C08                     u2021:
  3326  000C08  EF1D  F006         	goto	l2137
  3327  000C0C                     u2020:
  3328  000C0C  C01A  F022         	movff	___fldiv@b,??___fldiv
  3329  000C10  C01B  F023         	movff	___fldiv@b+1,??___fldiv+1
  3330  000C14  C01C  F024         	movff	___fldiv@b+2,??___fldiv+2
  3331  000C18  C01D  F025         	movff	___fldiv@b+3,??___fldiv+3
  3332  000C1C  3425               	rlcf	(??___fldiv+3)^0,w,c
  3333  000C1E  3225               	rrcf	(??___fldiv+3)^0,f,c
  3334  000C20  3224               	rrcf	(??___fldiv+2)^0,f,c
  3335  000C22  3223               	rrcf	(??___fldiv+1)^0,f,c
  3336  000C24  3222               	rrcf	??___fldiv^0,f,c
  3337  000C26  C022  F01A         	movff	??___fldiv,___fldiv@b
  3338  000C2A  C023  F01B         	movff	??___fldiv+1,___fldiv@b+1
  3339  000C2E  C024  F01C         	movff	??___fldiv+2,___fldiv@b+2
  3340  000C32  C025  F01D         	movff	??___fldiv+3,___fldiv@b+3
  3341  000C36  4A2B               	infsnz	___fldiv@new_exp^0,f,c
  3342  000C38  2A2C               	incf	(___fldiv@new_exp+1)^0,f,c
  3343  000C3A                     l2137:
  3344  000C3A  BE2C               	btfsc	(___fldiv@new_exp+1)^0,7,c
  3345  000C3C  EF28  F006         	goto	u2031
  3346  000C40  502C               	movf	(___fldiv@new_exp+1)^0,w,c
  3347  000C42  E108               	bnz	u2030
  3348  000C44  282B               	incf	___fldiv@new_exp^0,w,c
  3349  000C46  A0D8               	btfss	status,0,c
  3350  000C48  EF28  F006         	goto	u2031
  3351  000C4C  EF2A  F006         	goto	u2030
  3352  000C50                     u2031:
  3353  000C50  EF35  F006         	goto	l2141
  3354  000C54                     u2030:
  3355  000C54  0E00               	movlw	0
  3356  000C56  6E2C               	movwf	(___fldiv@new_exp+1)^0,c
  3357  000C58  682B               	setf	___fldiv@new_exp^0,c
  3358  000C5A  0E00               	movlw	0
  3359  000C5C  6E1A               	movwf	___fldiv@b^0,c
  3360  000C5E  0E00               	movlw	0
  3361  000C60  6E1B               	movwf	(___fldiv@b+1)^0,c
  3362  000C62  0E00               	movlw	0
  3363  000C64  6E1C               	movwf	(___fldiv@b+2)^0,c
  3364  000C66  0E00               	movlw	0
  3365  000C68  6E1D               	movwf	(___fldiv@b+3)^0,c
  3366  000C6A                     l2141:
  3367  000C6A  BE2C               	btfsc	(___fldiv@new_exp+1)^0,7,c
  3368  000C6C  EF42  F006         	goto	u2040
  3369  000C70  502C               	movf	(___fldiv@new_exp+1)^0,w,c
  3370  000C72  E106               	bnz	u2041
  3371  000C74  042B               	decf	___fldiv@new_exp^0,w,c
  3372  000C76  B0D8               	btfsc	status,0,c
  3373  000C78  EF40  F006         	goto	u2041
  3374  000C7C  EF42  F006         	goto	u2040
  3375  000C80                     u2041:
  3376  000C80  EF50  F006         	goto	l2145
  3377  000C84                     u2040:
  3378  000C84  0E00               	movlw	0
  3379  000C86  6E2C               	movwf	(___fldiv@new_exp+1)^0,c
  3380  000C88  0E00               	movlw	0
  3381  000C8A  6E2B               	movwf	___fldiv@new_exp^0,c
  3382  000C8C  0E00               	movlw	0
  3383  000C8E  6E1A               	movwf	___fldiv@b^0,c
  3384  000C90  0E00               	movlw	0
  3385  000C92  6E1B               	movwf	(___fldiv@b+1)^0,c
  3386  000C94  0E00               	movlw	0
  3387  000C96  6E1C               	movwf	(___fldiv@b+2)^0,c
  3388  000C98  0E00               	movlw	0
  3389  000C9A  6E1D               	movwf	(___fldiv@b+3)^0,c
  3390  000C9C  0E00               	movlw	0
  3391  000C9E  6E2A               	movwf	___fldiv@sign^0,c
  3392  000CA0                     l2145:
  3393  000CA0  C02B  F031         	movff	___fldiv@new_exp,___fldiv@bexp
  3394  000CA4  A031               	btfss	___fldiv@bexp^0,0,c
  3395  000CA6  EF57  F006         	goto	u2051
  3396  000CAA  EF59  F006         	goto	u2050
  3397  000CAE                     u2051:
  3398  000CAE  EF5C  F006         	goto	l2151
  3399  000CB2                     u2050:
  3400  000CB2  8E1C               	bsf	(___fldiv@b+2)^0,7,c
  3401  000CB4  EF5D  F006         	goto	l2153
  3402  000CB8                     l2151:
  3403  000CB8  9E1C               	bcf	(___fldiv@b+2)^0,7,c
  3404  000CBA                     l2153:
  3405  000CBA  90D8               	bcf	status,0,c
  3406  000CBC  3031               	rrcf	___fldiv@bexp^0,w,c
  3407  000CBE  6E1D               	movwf	(___fldiv@b+3)^0,c
  3408  000CC0  EF13  F005         	goto	l2067
  3409  000CC4                     l719:
  3410  000CC4  0012               	return		;funcret
  3411  000CC6                     __end_of___fldiv:
  3412                           	callstack 0
  3413                           
  3414 ;; *************** function ___fladd *****************
  3415 ;; Defined at:
  3416 ;;		line 10 in file "C:\Program Files\Microchip\xc8\v2.30\pic\sources\c99\common\sprcadd.c"
  3417 ;; Parameters:    Size  Location     Type
  3418 ;;  b               4    0[COMRAM] unsigned char 
  3419 ;;  a               4    4[COMRAM] unsigned char 
  3420 ;; Auto vars:     Size  Location     Type
  3421 ;;  grs             1   15[COMRAM] unsigned char 
  3422 ;;  bexp            1   14[COMRAM] unsigned char 
  3423 ;;  aexp            1   13[COMRAM] unsigned char 
  3424 ;;  signs           1   12[COMRAM] unsigned char 
  3425 ;; Return value:  Size  Location     Type
  3426 ;;                  4    0[COMRAM] unsigned char 
  3427 ;; Registers used:
  3428 ;;		wreg, status,2, status,0
  3429 ;; Tracked objects:
  3430 ;;		On entry : 0/0
  3431 ;;		On exit  : 0/0
  3432 ;;		Unchanged: 0/0
  3433 ;; Data sizes:     COMRAM   BANK0   BANK1   BANK2   BANK3   BANK4   BANK5
  3434 ;;      Params:         8       0       0       0       0       0       0
  3435 ;;      Locals:         4       0       0       0       0       0       0
  3436 ;;      Temps:          4       0       0       0       0       0       0
  3437 ;;      Totals:        16       0       0       0       0       0       0
  3438 ;;Total ram usage:       16 bytes
  3439 ;; Hardware stack levels used:    1
  3440 ;; Hardware stack levels required when called:    2
  3441 ;; This function calls:
  3442 ;;		Nothing
  3443 ;; This function is called by:
  3444 ;;		_main
  3445 ;; This function uses a non-reentrant model
  3446 ;;
  3447                           
  3448                           	psect	text18
  3449  000042                     __ptext18:
  3450                           	callstack 0
  3451  000042                     ___fladd:
  3452                           	callstack 28
  3453  000042  5004               	movf	(___fladd@b+3)^0,w,c
  3454  000044  0B80               	andlw	128
  3455  000046  6E0D               	movwf	___fladd@signs^0,c
  3456  000048  5004               	movf	(___fladd@b+3)^0,w,c
  3457  00004A  2404               	addwf	(___fladd@b+3)^0,w,c
  3458  00004C  6E0F               	movwf	___fladd@bexp^0,c
  3459  00004E  AE03               	btfss	(___fladd@b+2)^0,7,c
  3460  000050  EF2C  F000         	goto	u1441
  3461  000054  EF2E  F000         	goto	u1440
  3462  000058                     u1441:
  3463  000058  EF2F  F000         	goto	l1827
  3464  00005C                     u1440:
  3465  00005C  800F               	bsf	___fladd@bexp^0,0,c
  3466  00005E                     l1827:
  3467  00005E  500F               	movf	___fladd@bexp^0,w,c
  3468  000060  B4D8               	btfsc	status,2,c
  3469  000062  EF35  F000         	goto	u1451
  3470  000066  EF37  F000         	goto	u1450
  3471  00006A                     u1451:
  3472  00006A  EF4C  F000         	goto	l1837
  3473  00006E                     u1450:
  3474  00006E  280F               	incf	___fladd@bexp^0,w,c
  3475  000070  A4D8               	btfss	status,2,c
  3476  000072  EF3D  F000         	goto	u1461
  3477  000076  EF3F  F000         	goto	u1460
  3478  00007A                     u1461:
  3479  00007A  EF47  F000         	goto	l1833
  3480  00007E                     u1460:
  3481  00007E  0E00               	movlw	0
  3482  000080  6E01               	movwf	___fladd@b^0,c
  3483  000082  0E00               	movlw	0
  3484  000084  6E02               	movwf	(___fladd@b+1)^0,c
  3485  000086  0E00               	movlw	0
  3486  000088  6E03               	movwf	(___fladd@b+2)^0,c
  3487  00008A  0E00               	movlw	0
  3488  00008C  6E04               	movwf	(___fladd@b+3)^0,c
  3489  00008E                     l1833:
  3490  00008E  8E03               	bsf	(___fladd@b+2)^0,7,c
  3491  000090  0E00               	movlw	0
  3492  000092  6E04               	movwf	(___fladd@b+3)^0,c
  3493  000094  EF54  F000         	goto	l1839
  3494  000098                     l1837:
  3495  000098  0E00               	movlw	0
  3496  00009A  6E01               	movwf	___fladd@b^0,c
  3497  00009C  0E00               	movlw	0
  3498  00009E  6E02               	movwf	(___fladd@b+1)^0,c
  3499  0000A0  0E00               	movlw	0
  3500  0000A2  6E03               	movwf	(___fladd@b+2)^0,c
  3501  0000A4  0E00               	movlw	0
  3502  0000A6  6E04               	movwf	(___fladd@b+3)^0,c
  3503  0000A8                     l1839:
  3504  0000A8  5008               	movf	(___fladd@a+3)^0,w,c
  3505  0000AA  0B80               	andlw	128
  3506  0000AC  6E0E               	movwf	___fladd@aexp^0,c
  3507  0000AE  500D               	movf	___fladd@signs^0,w,c
  3508  0000B0  180E               	xorwf	___fladd@aexp^0,w,c
  3509  0000B2  B4D8               	btfsc	status,2,c
  3510  0000B4  EF5E  F000         	goto	u1471
  3511  0000B8  EF60  F000         	goto	u1470
  3512  0000BC                     u1471:
  3513  0000BC  EF61  F000         	goto	l1845
  3514  0000C0                     u1470:
  3515  0000C0  8C0D               	bsf	___fladd@signs^0,6,c
  3516  0000C2                     l1845:
  3517  0000C2  5008               	movf	(___fladd@a+3)^0,w,c
  3518  0000C4  2408               	addwf	(___fladd@a+3)^0,w,c
  3519  0000C6  6E0E               	movwf	___fladd@aexp^0,c
  3520  0000C8  AE07               	btfss	(___fladd@a+2)^0,7,c
  3521  0000CA  EF69  F000         	goto	u1481
  3522  0000CE  EF6B  F000         	goto	u1480
  3523  0000D2                     u1481:
  3524  0000D2  EF6C  F000         	goto	l1851
  3525  0000D6                     u1480:
  3526  0000D6  800E               	bsf	___fladd@aexp^0,0,c
  3527  0000D8                     l1851:
  3528  0000D8  500E               	movf	___fladd@aexp^0,w,c
  3529  0000DA  B4D8               	btfsc	status,2,c
  3530  0000DC  EF72  F000         	goto	u1491
  3531  0000E0  EF74  F000         	goto	u1490
  3532  0000E4                     u1491:
  3533  0000E4  EF89  F000         	goto	l1861
  3534  0000E8                     u1490:
  3535  0000E8  280E               	incf	___fladd@aexp^0,w,c
  3536  0000EA  A4D8               	btfss	status,2,c
  3537  0000EC  EF7A  F000         	goto	u1501
  3538  0000F0  EF7C  F000         	goto	u1500
  3539  0000F4                     u1501:
  3540  0000F4  EF84  F000         	goto	l1857
  3541  0000F8                     u1500:
  3542  0000F8  0E00               	movlw	0
  3543  0000FA  6E05               	movwf	___fladd@a^0,c
  3544  0000FC  0E00               	movlw	0
  3545  0000FE  6E06               	movwf	(___fladd@a+1)^0,c
  3546  000100  0E00               	movlw	0
  3547  000102  6E07               	movwf	(___fladd@a+2)^0,c
  3548  000104  0E00               	movlw	0
  3549  000106  6E08               	movwf	(___fladd@a+3)^0,c
  3550  000108                     l1857:
  3551  000108  8E07               	bsf	(___fladd@a+2)^0,7,c
  3552  00010A  0E00               	movlw	0
  3553  00010C  6E08               	movwf	(___fladd@a+3)^0,c
  3554  00010E  EF91  F000         	goto	l1863
  3555  000112                     l1861:
  3556  000112  0E00               	movlw	0
  3557  000114  6E05               	movwf	___fladd@a^0,c
  3558  000116  0E00               	movlw	0
  3559  000118  6E06               	movwf	(___fladd@a+1)^0,c
  3560  00011A  0E00               	movlw	0
  3561  00011C  6E07               	movwf	(___fladd@a+2)^0,c
  3562  00011E  0E00               	movlw	0
  3563  000120  6E08               	movwf	(___fladd@a+3)^0,c
  3564  000122                     l1863:
  3565  000122  500F               	movf	___fladd@bexp^0,w,c
  3566  000124  5C0E               	subwf	___fladd@aexp^0,w,c
  3567  000126  B0D8               	btfsc	status,0,c
  3568  000128  EF98  F000         	goto	u1511
  3569  00012C  EF9A  F000         	goto	u1510
  3570  000130                     u1511:
  3571  000130  EFC1  F000         	goto	l1899
  3572  000134                     u1510:
  3573  000134  AC0D               	btfss	___fladd@signs^0,6,c
  3574  000136  EF9F  F000         	goto	u1521
  3575  00013A  EFA1  F000         	goto	u1520
  3576  00013E                     u1521:
  3577  00013E  EFA3  F000         	goto	l1869
  3578  000142                     u1520:
  3579  000142  0E80               	movlw	128
  3580  000144  1A0D               	xorwf	___fladd@signs^0,f,c
  3581  000146                     l1869:
  3582  000146  C00F  F010         	movff	___fladd@bexp,___fladd@grs
  3583  00014A  C00E  F00F         	movff	___fladd@aexp,___fladd@bexp
  3584  00014E  C010  F00E         	movff	___fladd@grs,___fladd@aexp
  3585  000152  C001  F010         	movff	___fladd@b,___fladd@grs
  3586  000156  C005  F001         	movff	___fladd@a,___fladd@b
  3587  00015A  C010  F005         	movff	___fladd@grs,___fladd@a
  3588  00015E  C002  F010         	movff	___fladd@b+1,___fladd@grs
  3589  000162  C006  F002         	movff	___fladd@a+1,___fladd@b+1
  3590  000166  C010  F006         	movff	___fladd@grs,___fladd@a+1
  3591  00016A  C003  F010         	movff	___fladd@b+2,___fladd@grs
  3592  00016E  C007  F003         	movff	___fladd@a+2,___fladd@b+2
  3593  000172  C010  F007         	movff	___fladd@grs,___fladd@a+2
  3594  000176  C004  F010         	movff	___fladd@b+3,___fladd@grs
  3595  00017A  C008  F004         	movff	___fladd@a+3,___fladd@b+3
  3596  00017E  C010  F008         	movff	___fladd@grs,___fladd@a+3
  3597  000182                     l1899:
  3598  000182  0E00               	movlw	0
  3599  000184  6E10               	movwf	___fladd@grs^0,c
  3600  000186  500F               	movf	___fladd@bexp^0,w,c
  3601  000188  C00E  F009         	movff	___fladd@aexp,??___fladd
  3602  00018C  6A0A               	clrf	(??___fladd+1)^0,c
  3603  00018E  5E09               	subwf	??___fladd^0,f,c
  3604  000190  0E00               	movlw	0
  3605  000192  5A0A               	subwfb	(??___fladd+1)^0,f,c
  3606  000194  BE0A               	btfsc	(??___fladd+1)^0,7,c
  3607  000196  EFD6  F000         	goto	u1531
  3608  00019A  500A               	movf	(??___fladd+1)^0,w,c
  3609  00019C  E109               	bnz	u1530
  3610  00019E  0E1A               	movlw	26
  3611  0001A0  5C09               	subwf	??___fladd^0,w,c
  3612  0001A2  A0D8               	btfss	status,0,c
  3613  0001A4  EFD6  F000         	goto	u1531
  3614  0001A8  EFD8  F000         	goto	u1530
  3615  0001AC                     u1531:
  3616  0001AC  EF0F  F001         	goto	l666
  3617  0001B0                     u1530:
  3618  0001B0  5001               	movf	___fladd@b^0,w,c
  3619  0001B2  1002               	iorwf	(___fladd@b+1)^0,w,c
  3620  0001B4  1003               	iorwf	(___fladd@b+2)^0,w,c
  3621  0001B6  1004               	iorwf	(___fladd@b+3)^0,w,c
  3622  0001B8  A4D8               	btfss	status,2,c
  3623  0001BA  EFE1  F000         	goto	u1541
  3624  0001BE  EFE4  F000         	goto	u1540
  3625  0001C2                     u1541:
  3626  0001C2  0E01               	movlw	1
  3627  0001C4  EFE5  F000         	goto	u1550
  3628  0001C8                     u1540:
  3629  0001C8  0E00               	movlw	0
  3630  0001CA                     u1550:
  3631  0001CA  6E10               	movwf	___fladd@grs^0,c
  3632  0001CC  0E00               	movlw	0
  3633  0001CE  6E01               	movwf	___fladd@b^0,c
  3634  0001D0  0E00               	movlw	0
  3635  0001D2  6E02               	movwf	(___fladd@b+1)^0,c
  3636  0001D4  0E00               	movlw	0
  3637  0001D6  6E03               	movwf	(___fladd@b+2)^0,c
  3638  0001D8  0E00               	movlw	0
  3639  0001DA  6E04               	movwf	(___fladd@b+3)^0,c
  3640  0001DC  C00E  F00F         	movff	___fladd@aexp,___fladd@bexp
  3641  0001E0  EF18  F001         	goto	l665
  3642  0001E4                     l667:
  3643  0001E4  A010               	btfss	___fladd@grs^0,0,c
  3644  0001E6  EFF7  F000         	goto	u1561
  3645  0001EA  EFF9  F000         	goto	u1560
  3646  0001EE                     u1561:
  3647  0001EE  EFFF  F000         	goto	l1911
  3648  0001F2                     u1560:
  3649  0001F2  90D8               	bcf	status,0,c
  3650  0001F4  3010               	rrcf	___fladd@grs^0,w,c
  3651  0001F6  0901               	iorlw	1
  3652  0001F8  6E10               	movwf	___fladd@grs^0,c
  3653  0001FA  EF01  F001         	goto	l1913
  3654  0001FE                     l1911:
  3655  0001FE  90D8               	bcf	status,0,c
  3656  000200  3210               	rrcf	___fladd@grs^0,f,c
  3657  000202                     l1913:
  3658  000202  A001               	btfss	___fladd@b^0,0,c
  3659  000204  EF06  F001         	goto	u1571
  3660  000208  EF08  F001         	goto	u1570
  3661  00020C                     u1571:
  3662  00020C  EF09  F001         	goto	l1917
  3663  000210                     u1570:
  3664  000210  8E10               	bsf	___fladd@grs^0,7,c
  3665  000212                     l1917:
  3666  000212  3404               	rlcf	(___fladd@b+3)^0,w,c
  3667  000214  3204               	rrcf	(___fladd@b+3)^0,f,c
  3668  000216  3203               	rrcf	(___fladd@b+2)^0,f,c
  3669  000218  3202               	rrcf	(___fladd@b+1)^0,f,c
  3670  00021A  3201               	rrcf	___fladd@b^0,f,c
  3671  00021C  2A0F               	incf	___fladd@bexp^0,f,c
  3672  00021E                     l666:
  3673  00021E  500E               	movf	___fladd@aexp^0,w,c
  3674  000220  5C0F               	subwf	___fladd@bexp^0,w,c
  3675  000222  A0D8               	btfss	status,0,c
  3676  000224  EF16  F001         	goto	u1581
  3677  000228  EF18  F001         	goto	u1580
  3678  00022C                     u1581:
  3679  00022C  EFF2  F000         	goto	l667
  3680  000230                     u1580:
  3681  000230                     l665:
  3682  000230  BC0D               	btfsc	___fladd@signs^0,6,c
  3683  000232  EF1D  F001         	goto	u1591
  3684  000236  EF1F  F001         	goto	u1590
  3685  00023A                     u1591:
  3686  00023A  EF5F  F001         	goto	l1945
  3687  00023E                     u1590:
  3688  00023E  500F               	movf	___fladd@bexp^0,w,c
  3689  000240  A4D8               	btfss	status,2,c
  3690  000242  EF25  F001         	goto	u1601
  3691  000246  EF27  F001         	goto	u1600
  3692  00024A                     u1601:
  3693  00024A  EF31  F001         	goto	l1927
  3694  00024E                     u1600:
  3695  00024E  0E00               	movlw	0
  3696  000250  6E01               	movwf	?___fladd^0,c
  3697  000252  0E00               	movlw	0
  3698  000254  6E02               	movwf	(?___fladd+1)^0,c
  3699  000256  0E00               	movlw	0
  3700  000258  6E03               	movwf	(?___fladd+2)^0,c
  3701  00025A  0E00               	movlw	0
  3702  00025C  6E04               	movwf	(?___fladd+3)^0,c
  3703  00025E  EF80  F002         	goto	l674
  3704  000262                     l1927:
  3705  000262  5005               	movf	___fladd@a^0,w,c
  3706  000264  2601               	addwf	___fladd@b^0,f,c
  3707  000266  5006               	movf	(___fladd@a+1)^0,w,c
  3708  000268  2202               	addwfc	(___fladd@b+1)^0,f,c
  3709  00026A  5007               	movf	(___fladd@a+2)^0,w,c
  3710  00026C  2203               	addwfc	(___fladd@b+2)^0,f,c
  3711  00026E  5008               	movf	(___fladd@a+3)^0,w,c
  3712  000270  2204               	addwfc	(___fladd@b+3)^0,f,c
  3713  000272  A004               	btfss	(___fladd@b+3)^0,0,c
  3714  000274  EF3E  F001         	goto	u1611
  3715  000278  EF40  F001         	goto	u1610
  3716  00027C                     u1611:
  3717  00027C  EFEC  F001         	goto	l1981
  3718  000280                     u1610:
  3719  000280  A010               	btfss	___fladd@grs^0,0,c
  3720  000282  EF45  F001         	goto	u1621
  3721  000286  EF47  F001         	goto	u1620
  3722  00028A                     u1621:
  3723  00028A  EF4D  F001         	goto	l1935
  3724  00028E                     u1620:
  3725  00028E  90D8               	bcf	status,0,c
  3726  000290  3010               	rrcf	___fladd@grs^0,w,c
  3727  000292  0901               	iorlw	1
  3728  000294  6E10               	movwf	___fladd@grs^0,c
  3729  000296  EF4F  F001         	goto	l1937
  3730  00029A                     l1935:
  3731  00029A  90D8               	bcf	status,0,c
  3732  00029C  3210               	rrcf	___fladd@grs^0,f,c
  3733  00029E                     l1937:
  3734  00029E  A001               	btfss	___fladd@b^0,0,c
  3735  0002A0  EF54  F001         	goto	u1631
  3736  0002A4  EF56  F001         	goto	u1630
  3737  0002A8                     u1631:
  3738  0002A8  EF57  F001         	goto	l1941
  3739  0002AC                     u1630:
  3740  0002AC  8E10               	bsf	___fladd@grs^0,7,c
  3741  0002AE                     l1941:
  3742  0002AE  3404               	rlcf	(___fladd@b+3)^0,w,c
  3743  0002B0  3204               	rrcf	(___fladd@b+3)^0,f,c
  3744  0002B2  3203               	rrcf	(___fladd@b+2)^0,f,c
  3745  0002B4  3202               	rrcf	(___fladd@b+1)^0,f,c
  3746  0002B6  3201               	rrcf	___fladd@b^0,f,c
  3747  0002B8  2A0F               	incf	___fladd@bexp^0,f,c
  3748  0002BA  EFEC  F001         	goto	l1981
  3749  0002BE                     l1945:
  3750  0002BE  5005               	movf	___fladd@a^0,w,c
  3751  0002C0  5C01               	subwf	___fladd@b^0,w,c
  3752  0002C2  5006               	movf	(___fladd@a+1)^0,w,c
  3753  0002C4  5802               	subwfb	(___fladd@b+1)^0,w,c
  3754  0002C6  5007               	movf	(___fladd@a+2)^0,w,c
  3755  0002C8  5803               	subwfb	(___fladd@b+2)^0,w,c
  3756  0002CA  5004               	movf	(___fladd@b+3)^0,w,c
  3757  0002CC  0A80               	xorlw	128
  3758  0002CE  6E09               	movwf	??___fladd^0,c
  3759  0002D0  5008               	movf	(___fladd@a+3)^0,w,c
  3760  0002D2  0A80               	xorlw	128
  3761  0002D4  5809               	subwfb	??___fladd^0,w,c
  3762  0002D6  B0D8               	btfsc	status,0,c
  3763  0002D8  EF70  F001         	goto	u1641
  3764  0002DC  EF72  F001         	goto	u1640
  3765  0002E0                     u1641:
  3766  0002E0  EF9D  F001         	goto	l1955
  3767  0002E4                     u1640:
  3768  0002E4  5001               	movf	___fladd@b^0,w,c
  3769  0002E6  5C05               	subwf	___fladd@a^0,w,c
  3770  0002E8  6E09               	movwf	??___fladd^0,c
  3771  0002EA  5002               	movf	(___fladd@b+1)^0,w,c
  3772  0002EC  5806               	subwfb	(___fladd@a+1)^0,w,c
  3773  0002EE  6E0A               	movwf	(??___fladd+1)^0,c
  3774  0002F0  5003               	movf	(___fladd@b+2)^0,w,c
  3775  0002F2  5807               	subwfb	(___fladd@a+2)^0,w,c
  3776  0002F4  6E0B               	movwf	(??___fladd+2)^0,c
  3777  0002F6  5004               	movf	(___fladd@b+3)^0,w,c
  3778  0002F8  5808               	subwfb	(___fladd@a+3)^0,w,c
  3779  0002FA  6E0C               	movwf	(??___fladd+3)^0,c
  3780  0002FC  0EFF               	movlw	255
  3781  0002FE  2409               	addwf	??___fladd^0,w,c
  3782  000300  6E01               	movwf	___fladd@b^0,c
  3783  000302  0EFF               	movlw	255
  3784  000304  200A               	addwfc	(??___fladd+1)^0,w,c
  3785  000306  6E02               	movwf	(___fladd@b+1)^0,c
  3786  000308  0EFF               	movlw	255
  3787  00030A  200B               	addwfc	(??___fladd+2)^0,w,c
  3788  00030C  6E03               	movwf	(___fladd@b+2)^0,c
  3789  00030E  0EFF               	movlw	255
  3790  000310  200C               	addwfc	(??___fladd+3)^0,w,c
  3791  000312  6E04               	movwf	(___fladd@b+3)^0,c
  3792  000314  0E80               	movlw	128
  3793  000316  1A0D               	xorwf	___fladd@signs^0,f,c
  3794  000318  6C10               	negf	___fladd@grs^0,c
  3795  00031A  5010               	movf	___fladd@grs^0,w,c
  3796  00031C  A4D8               	btfss	status,2,c
  3797  00031E  EF93  F001         	goto	u1651
  3798  000322  EF95  F001         	goto	u1650
  3799  000326                     u1651:
  3800  000326  EFA5  F001         	goto	l682
  3801  00032A                     u1650:
  3802  00032A  0E01               	movlw	1
  3803  00032C  2601               	addwf	___fladd@b^0,f,c
  3804  00032E  0E00               	movlw	0
  3805  000330  2202               	addwfc	(___fladd@b+1)^0,f,c
  3806  000332  2203               	addwfc	(___fladd@b+2)^0,f,c
  3807  000334  2204               	addwfc	(___fladd@b+3)^0,f,c
  3808  000336  EFA5  F001         	goto	l682
  3809  00033A                     l1955:
  3810  00033A  5005               	movf	___fladd@a^0,w,c
  3811  00033C  5E01               	subwf	___fladd@b^0,f,c
  3812  00033E  5006               	movf	(___fladd@a+1)^0,w,c
  3813  000340  5A02               	subwfb	(___fladd@b+1)^0,f,c
  3814  000342  5007               	movf	(___fladd@a+2)^0,w,c
  3815  000344  5A03               	subwfb	(___fladd@b+2)^0,f,c
  3816  000346  5008               	movf	(___fladd@a+3)^0,w,c
  3817  000348  5A04               	subwfb	(___fladd@b+3)^0,f,c
  3818  00034A                     l682:
  3819  00034A  5001               	movf	___fladd@b^0,w,c
  3820  00034C  1002               	iorwf	(___fladd@b+1)^0,w,c
  3821  00034E  1003               	iorwf	(___fladd@b+2)^0,w,c
  3822  000350  1004               	iorwf	(___fladd@b+3)^0,w,c
  3823  000352  A4D8               	btfss	status,2,c
  3824  000354  EFAE  F001         	goto	u1661
  3825  000358  EFB0  F001         	goto	u1660
  3826  00035C                     u1661:
  3827  00035C  EFE5  F001         	goto	l1979
  3828  000360                     u1660:
  3829  000360  5010               	movf	___fladd@grs^0,w,c
  3830  000362  A4D8               	btfss	status,2,c
  3831  000364  EFB6  F001         	goto	u1671
  3832  000368  EFB8  F001         	goto	u1670
  3833  00036C                     u1671:
  3834  00036C  EFE5  F001         	goto	l1979
  3835  000370                     u1670:
  3836  000370  0E00               	movlw	0
  3837  000372  6E01               	movwf	?___fladd^0,c
  3838  000374  0E00               	movlw	0
  3839  000376  6E02               	movwf	(?___fladd+1)^0,c
  3840  000378  0E00               	movlw	0
  3841  00037A  6E03               	movwf	(?___fladd+2)^0,c
  3842  00037C  0E00               	movlw	0
  3843  00037E  6E04               	movwf	(?___fladd+3)^0,c
  3844  000380  EF80  F002         	goto	l674
  3845  000384                     l1963:
  3846  000384  90D8               	bcf	status,0,c
  3847  000386  3601               	rlcf	___fladd@b^0,f,c
  3848  000388  3602               	rlcf	(___fladd@b+1)^0,f,c
  3849  00038A  3603               	rlcf	(___fladd@b+2)^0,f,c
  3850  00038C  3604               	rlcf	(___fladd@b+3)^0,f,c
  3851  00038E  AE10               	btfss	___fladd@grs^0,7,c
  3852  000390  EFCC  F001         	goto	u1681
  3853  000394  EFCE  F001         	goto	u1680
  3854  000398                     u1681:
  3855  000398  EFCF  F001         	goto	l1969
  3856  00039C                     u1680:
  3857  00039C  8001               	bsf	___fladd@b^0,0,c
  3858  00039E                     l1969:
  3859  00039E  A010               	btfss	___fladd@grs^0,0,c
  3860  0003A0  EFD4  F001         	goto	u1691
  3861  0003A4  EFD6  F001         	goto	u1690
  3862  0003A8                     u1691:
  3863  0003A8  EFDA  F001         	goto	l1973
  3864  0003AC                     u1690:
  3865  0003AC  80D8               	bsf	status,0,c
  3866  0003AE  3610               	rlcf	___fladd@grs^0,f,c
  3867  0003B0  EFDC  F001         	goto	l1975
  3868  0003B4                     l1973:
  3869  0003B4  90D8               	bcf	status,0,c
  3870  0003B6  3610               	rlcf	___fladd@grs^0,f,c
  3871  0003B8                     l1975:
  3872  0003B8  500F               	movf	___fladd@bexp^0,w,c
  3873  0003BA  B4D8               	btfsc	status,2,c
  3874  0003BC  EFE2  F001         	goto	u1701
  3875  0003C0  EFE4  F001         	goto	u1700
  3876  0003C4                     u1701:
  3877  0003C4  EFE5  F001         	goto	l1979
  3878  0003C8                     u1700:
  3879  0003C8  060F               	decf	___fladd@bexp^0,f,c
  3880  0003CA                     l1979:
  3881  0003CA  AE03               	btfss	(___fladd@b+2)^0,7,c
  3882  0003CC  EFEA  F001         	goto	u1711
  3883  0003D0  EFEC  F001         	goto	u1710
  3884  0003D4                     u1711:
  3885  0003D4  EFC2  F001         	goto	l1963
  3886  0003D8                     u1710:
  3887  0003D8                     l1981:
  3888  0003D8  0E00               	movlw	0
  3889  0003DA  6E0E               	movwf	___fladd@aexp^0,c
  3890  0003DC  AE10               	btfss	___fladd@grs^0,7,c
  3891  0003DE  EFF3  F001         	goto	u1721
  3892  0003E2  EFF5  F001         	goto	u1720
  3893  0003E6                     u1721:
  3894  0003E6  EF0D  F002         	goto	l691
  3895  0003EA                     u1720:
  3896  0003EA  C010  F009         	movff	___fladd@grs,??___fladd
  3897  0003EE  0E7F               	movlw	127
  3898  0003F0  1609               	andwf	??___fladd^0,f,c
  3899  0003F2  B4D8               	btfsc	status,2,c
  3900  0003F4  EFFE  F001         	goto	u1731
  3901  0003F8  EF00  F002         	goto	u1730
  3902  0003FC                     u1731:
  3903  0003FC  EF04  F002         	goto	l692
  3904  000400                     u1730:
  3905  000400                     l1987:
  3906  000400  0E01               	movlw	1
  3907  000402  6E0E               	movwf	___fladd@aexp^0,c
  3908  000404  EF0D  F002         	goto	l691
  3909  000408                     l692:
  3910  000408  A001               	btfss	___fladd@b^0,0,c
  3911  00040A  EF09  F002         	goto	u1741
  3912  00040E  EF0B  F002         	goto	u1740
  3913  000412                     u1741:
  3914  000412  EF0D  F002         	goto	l691
  3915  000416                     u1740:
  3916  000416  EF00  F002         	goto	l1987
  3917  00041A                     l691:
  3918  00041A  500E               	movf	___fladd@aexp^0,w,c
  3919  00041C  B4D8               	btfsc	status,2,c
  3920  00041E  EF13  F002         	goto	u1751
  3921  000422  EF15  F002         	goto	u1750
  3922  000426                     u1751:
  3923  000426  EF40  F002         	goto	l1999
  3924  00042A                     u1750:
  3925  00042A  0E01               	movlw	1
  3926  00042C  2601               	addwf	___fladd@b^0,f,c
  3927  00042E  0E00               	movlw	0
  3928  000430  2202               	addwfc	(___fladd@b+1)^0,f,c
  3929  000432  2203               	addwfc	(___fladd@b+2)^0,f,c
  3930  000434  2204               	addwfc	(___fladd@b+3)^0,f,c
  3931  000436  A004               	btfss	(___fladd@b+3)^0,0,c
  3932  000438  EF20  F002         	goto	u1761
  3933  00043C  EF22  F002         	goto	u1760
  3934  000440                     u1761:
  3935  000440  EF40  F002         	goto	l1999
  3936  000444                     u1760:
  3937  000444  C001  F009         	movff	___fladd@b,??___fladd
  3938  000448  C002  F00A         	movff	___fladd@b+1,??___fladd+1
  3939  00044C  C003  F00B         	movff	___fladd@b+2,??___fladd+2
  3940  000450  C004  F00C         	movff	___fladd@b+3,??___fladd+3
  3941  000454  340C               	rlcf	(??___fladd+3)^0,w,c
  3942  000456  320C               	rrcf	(??___fladd+3)^0,f,c
  3943  000458  320B               	rrcf	(??___fladd+2)^0,f,c
  3944  00045A  320A               	rrcf	(??___fladd+1)^0,f,c
  3945  00045C  3209               	rrcf	??___fladd^0,f,c
  3946  00045E  C009  F001         	movff	??___fladd,___fladd@b
  3947  000462  C00A  F002         	movff	??___fladd+1,___fladd@b+1
  3948  000466  C00B  F003         	movff	??___fladd+2,___fladd@b+2
  3949  00046A  C00C  F004         	movff	??___fladd+3,___fladd@b+3
  3950  00046E  280F               	incf	___fladd@bexp^0,w,c
  3951  000470  B4D8               	btfsc	status,2,c
  3952  000472  EF3D  F002         	goto	u1771
  3953  000476  EF3F  F002         	goto	u1770
  3954  00047A                     u1771:
  3955  00047A  EF40  F002         	goto	l1999
  3956  00047E                     u1770:
  3957  00047E  2A0F               	incf	___fladd@bexp^0,f,c
  3958  000480                     l1999:
  3959  000480  280F               	incf	___fladd@bexp^0,w,c
  3960  000482  B4D8               	btfsc	status,2,c
  3961  000484  EF46  F002         	goto	u1781
  3962  000488  EF48  F002         	goto	u1780
  3963  00048C                     u1781:
  3964  00048C  EF50  F002         	goto	l2003
  3965  000490                     u1780:
  3966  000490  500F               	movf	___fladd@bexp^0,w,c
  3967  000492  A4D8               	btfss	status,2,c
  3968  000494  EF4E  F002         	goto	u1791
  3969  000498  EF50  F002         	goto	u1790
  3970  00049C                     u1791:
  3971  00049C  EF62  F002         	goto	l2007
  3972  0004A0                     u1790:
  3973  0004A0                     l2003:
  3974  0004A0  0E00               	movlw	0
  3975  0004A2  6E01               	movwf	___fladd@b^0,c
  3976  0004A4  0E00               	movlw	0
  3977  0004A6  6E02               	movwf	(___fladd@b+1)^0,c
  3978  0004A8  0E00               	movlw	0
  3979  0004AA  6E03               	movwf	(___fladd@b+2)^0,c
  3980  0004AC  0E00               	movlw	0
  3981  0004AE  6E04               	movwf	(___fladd@b+3)^0,c
  3982  0004B0  500F               	movf	___fladd@bexp^0,w,c
  3983  0004B2  A4D8               	btfss	status,2,c
  3984  0004B4  EF5E  F002         	goto	u1801
  3985  0004B8  EF60  F002         	goto	u1800
  3986  0004BC                     u1801:
  3987  0004BC  EF62  F002         	goto	l2007
  3988  0004C0                     u1800:
  3989  0004C0  0E00               	movlw	0
  3990  0004C2  6E0D               	movwf	___fladd@signs^0,c
  3991  0004C4                     l2007:
  3992  0004C4  A00F               	btfss	___fladd@bexp^0,0,c
  3993  0004C6  EF67  F002         	goto	u1811
  3994  0004CA  EF69  F002         	goto	u1810
  3995  0004CE                     u1811:
  3996  0004CE  EF6C  F002         	goto	l2011
  3997  0004D2                     u1810:
  3998  0004D2  8E03               	bsf	(___fladd@b+2)^0,7,c
  3999  0004D4  EF6D  F002         	goto	l2013
  4000  0004D8                     l2011:
  4001  0004D8  9E03               	bcf	(___fladd@b+2)^0,7,c
  4002  0004DA                     l2013:
  4003  0004DA  90D8               	bcf	status,0,c
  4004  0004DC  300F               	rrcf	___fladd@bexp^0,w,c
  4005  0004DE  6E04               	movwf	(___fladd@b+3)^0,c
  4006  0004E0  AE0D               	btfss	___fladd@signs^0,7,c
  4007  0004E2  EF75  F002         	goto	u1821
  4008  0004E6  EF77  F002         	goto	u1820
  4009  0004EA                     u1821:
  4010  0004EA  EF78  F002         	goto	l2019
  4011  0004EE                     u1820:
  4012  0004EE  8E04               	bsf	(___fladd@b+3)^0,7,c
  4013  0004F0                     l2019:
  4014  0004F0  C001  F001         	movff	___fladd@b,?___fladd
  4015  0004F4  C002  F002         	movff	___fladd@b+1,?___fladd+1
  4016  0004F8  C003  F003         	movff	___fladd@b+2,?___fladd+2
  4017  0004FC  C004  F004         	movff	___fladd@b+3,?___fladd+3
  4018  000500                     l674:
  4019  000500  0012               	return		;funcret
  4020  000502                     __end_of___fladd:
  4021                           	callstack 0
  4022                           
  4023 ;; *************** function _stopit *****************
  4024 ;; Defined at:
  4025 ;;		line 79 in file "main.c"
  4026 ;; Parameters:    Size  Location     Type
  4027 ;;		None
  4028 ;; Auto vars:     Size  Location     Type
  4029 ;;		None
  4030 ;; Return value:  Size  Location     Type
  4031 ;;                  1    wreg      void 
  4032 ;; Registers used:
  4033 ;;		wreg, status,2, status,0, cstack
  4034 ;; Tracked objects:
  4035 ;;		On entry : 0/0
  4036 ;;		On exit  : 0/0
  4037 ;;		Unchanged: 0/0
  4038 ;; Data sizes:     COMRAM   BANK0   BANK1   BANK2   BANK3   BANK4   BANK5
  4039 ;;      Params:         0       0       0       0       0       0       0
  4040 ;;      Locals:         0       0       0       0       0       0       0
  4041 ;;      Temps:          0       0       0       0       0       0       0
  4042 ;;      Totals:         0       0       0       0       0       0       0
  4043 ;;Total ram usage:        0 bytes
  4044 ;; Hardware stack levels used:    1
  4045 ;; Hardware stack levels required when called:    1
  4046 ;; This function calls:
  4047 ;;		i2_stopmotor
  4048 ;; This function is called by:
  4049 ;;		Interrupt level 2
  4050 ;; This function uses a non-reentrant model
  4051 ;;
  4052                           
  4053                           	psect	intcode
  4054  000008                     __pintcode:
  4055                           	callstack 0
  4056  000008                     _stopit:
  4057                           	callstack 27
  4058                           
  4059                           ;incstack = 0
  4060  000008  8253               	bsf	int$flags,1,c	;set compiler interrupt flag (level 2)
  4061  00000A                     
  4062                           ;main.c: 80:     if (INTCON3bits.INT2IF == 1){
  4063  00000A  A2F0               	btfss	240,1,c	;volatile
  4064  00000C  EF0A  F000         	goto	i2u120_41
  4065  000010  EF0C  F000         	goto	i2u120_40
  4066  000014                     i2u120_41:
  4067  000014  EF0F  F000         	goto	i2l1589
  4068  000018                     i2u120_40:
  4069  000018                     
  4070                           ;main.c: 81:         stopmotor();
  4071  000018  EC7A  F00B         	call	i2_stopmotor	;wreg free
  4072  00001C                     
  4073                           ;main.c: 82:         INTCON3bits.INT2IF = 0;
  4074  00001C  92F0               	bcf	240,1,c	;volatile
  4075  00001E                     i2l1589:
  4076                           
  4077                           ;main.c: 84:     if(INTCONbits.TMR0IF){
  4078  00001E  A4F2               	btfss	242,2,c	;volatile
  4079  000020  EF14  F000         	goto	i2u121_41
  4080  000024  EF16  F000         	goto	i2u121_40
  4081  000028                     i2u121_41:
  4082  000028  EF1D  F000         	goto	i2l86
  4083  00002C                     i2u121_40:
  4084  00002C                     
  4085                           ;main.c: 85:             INTCONbits.TMR0IF =0;
  4086  00002C  94F2               	bcf	242,2,c	;volatile
  4087  00002E                     
  4088                           ;main.c: 86:             TMR0H = 0xE1;
  4089  00002E  0EE1               	movlw	225
  4090  000030  6ED7               	movwf	215,c	;volatile
  4091                           
  4092                           ;main.c: 87:             TMR0L = 0x7A;
  4093  000032  0E7A               	movlw	122
  4094  000034  6ED6               	movwf	214,c	;volatile
  4095  000036                     
  4096                           ;main.c: 88:             k++;
  4097  000036  4A51               	infsnz	_k^0,f,c
  4098  000038  2A52               	incf	(_k+1)^0,f,c
  4099  00003A                     i2l86:
  4100  00003A  9253               	bcf	int$flags,1,c	;clear compiler interrupt flag (level 2)
  4101  00003C  0011               	retfie		f
  4102  00003E                     __end_of_stopit:
  4103                           	callstack 0
  4104                           
  4105 ;; *************** function i2_stopmotor *****************
  4106 ;; Defined at:
  4107 ;;		line 64 in file "main.c"
  4108 ;; Parameters:    Size  Location     Type
  4109 ;;		None
  4110 ;; Auto vars:     Size  Location     Type
  4111 ;;		None
  4112 ;; Return value:  Size  Location     Type
  4113 ;;                  1    wreg      void 
  4114 ;; Registers used:
  4115 ;;		None
  4116 ;; Tracked objects:
  4117 ;;		On entry : 0/0
  4118 ;;		On exit  : 0/0
  4119 ;;		Unchanged: 0/0
  4120 ;; Data sizes:     COMRAM   BANK0   BANK1   BANK2   BANK3   BANK4   BANK5
  4121 ;;      Params:         0       0       0       0       0       0       0
  4122 ;;      Locals:         0       0       0       0       0       0       0
  4123 ;;      Temps:          0       0       0       0       0       0       0
  4124 ;;      Totals:         0       0       0       0       0       0       0
  4125 ;;Total ram usage:        0 bytes
  4126 ;; Hardware stack levels used:    1
  4127 ;; This function calls:
  4128 ;;		Nothing
  4129 ;; This function is called by:
  4130 ;;		_stopit
  4131 ;; This function uses a non-reentrant model
  4132 ;;
  4133                           
  4134                           	psect	text20
  4135  0016F4                     __ptext20:
  4136                           	callstack 0
  4137  0016F4                     i2_stopmotor:
  4138                           	callstack 27
  4139  0016F4                     
  4140                           ;main.c: 65:     PORTDbits.RD0 = 0;
  4141  0016F4  9083               	bcf	131,0,c	;volatile
  4142                           
  4143                           ;main.c: 66:     PORTDbits.RD1 = 0;
  4144  0016F6  9283               	bcf	131,1,c	;volatile
  4145  0016F8  0012               	return		;funcret
  4146  0016FA                     __end_ofi2_stopmotor:
  4147                           	callstack 0
  4148  0000                     
  4149                           	psect	rparam
  4150  0000                     
  4151                           	psect	temp
  4152  000053                     btemp:
  4153                           	callstack 0
  4154  000053                     	ds	1
  4155  0000                     int$flags	set	btemp
  4156  0000                     wtemp8	set	btemp+1
  4157  0000                     ttemp5	set	btemp+1
  4158  0000                     ttemp6	set	btemp+4
  4159  0000                     ttemp7	set	btemp+8
  4160                           
  4161                           	psect	idloc
  4162                           
  4163                           ;Config register IDLOC0 @ 0x200000
  4164                           ;	unspecified, using default values
  4165  200000                     	org	2097152
  4166  200000  FF                 	db	255
  4167                           
  4168                           ;Config register IDLOC1 @ 0x200001
  4169                           ;	unspecified, using default values
  4170  200001                     	org	2097153
  4171  200001  FF                 	db	255
  4172                           
  4173                           ;Config register IDLOC2 @ 0x200002
  4174                           ;	unspecified, using default values
  4175  200002                     	org	2097154
  4176  200002  FF                 	db	255
  4177                           
  4178                           ;Config register IDLOC3 @ 0x200003
  4179                           ;	unspecified, using default values
  4180  200003                     	org	2097155
  4181  200003  FF                 	db	255
  4182                           
  4183                           ;Config register IDLOC4 @ 0x200004
  4184                           ;	unspecified, using default values
  4185  200004                     	org	2097156
  4186  200004  FF                 	db	255
  4187                           
  4188                           ;Config register IDLOC5 @ 0x200005
  4189                           ;	unspecified, using default values
  4190  200005                     	org	2097157
  4191  200005  FF                 	db	255
  4192                           
  4193                           ;Config register IDLOC6 @ 0x200006
  4194                           ;	unspecified, using default values
  4195  200006                     	org	2097158
  4196  200006  FF                 	db	255
  4197                           
  4198                           ;Config register IDLOC7 @ 0x200007
  4199                           ;	unspecified, using default values
  4200  200007                     	org	2097159
  4201  200007  FF                 	db	255
  4202                           
  4203                           	psect	config
  4204                           
  4205                           ; Padding undefined space
  4206  300000                     	org	3145728
  4207  300000  FF                 	db	255
  4208                           
  4209                           ;Config register CONFIG1H @ 0x300001
  4210                           ;	Oscillator Selection bits
  4211                           ;	FOSC = INTIO67, Internal oscillator block
  4212                           ;	4X PLL Enable
  4213                           ;	PLLCFG = OFF, Oscillator used directly
  4214                           ;	Primary clock enable bit
  4215                           ;	PRICLKEN = ON, Primary clock is always enabled
  4216                           ;	Fail-Safe Clock Monitor Enable bit
  4217                           ;	FCMEN = OFF, Fail-Safe Clock Monitor disabled
  4218                           ;	Internal/External Oscillator Switchover bit
  4219                           ;	IESO = OFF, Oscillator Switchover mode disabled
  4220  300001                     	org	3145729
  4221  300001  28                 	db	40
  4222                           
  4223                           ;Config register CONFIG2L @ 0x300002
  4224                           ;	Power-up Timer Enable bit
  4225                           ;	PWRTEN = OFF, Power up timer disabled
  4226                           ;	Brown-out Reset Enable bits
  4227                           ;	BOREN = SBORDIS, Brown-out Reset enabled in hardware only (SBOREN is disabled)
  4228                           ;	Brown Out Reset Voltage bits
  4229                           ;	BORV = 190, VBOR set to 1.90 V nominal
  4230  300002                     	org	3145730
  4231  300002  1F                 	db	31
  4232                           
  4233                           ;Config register CONFIG2H @ 0x300003
  4234                           ;	Watchdog Timer Enable bits
  4235                           ;	WDTEN = OFF, Watch dog timer is always disabled. SWDTEN has no effect.
  4236                           ;	Watchdog Timer Postscale Select bits
  4237                           ;	WDTPS = 32768, 1:32768
  4238  300003                     	org	3145731
  4239  300003  3C                 	db	60
  4240                           
  4241                           ; Padding undefined space
  4242  300004                     	org	3145732
  4243  300004  FF                 	db	255
  4244                           
  4245                           ;Config register CONFIG3H @ 0x300005
  4246                           ;	CCP2 MUX bit
  4247                           ;	CCP2MX = PORTC1, CCP2 input/output is multiplexed with RC1
  4248                           ;	PORTB A/D Enable bit
  4249                           ;	PBADEN = ON, PORTB<5:0> pins are configured as analog input channels on Reset
  4250                           ;	P3A/CCP3 Mux bit
  4251                           ;	CCP3MX = PORTB5, P3A/CCP3 input/output is multiplexed with RB5
  4252                           ;	HFINTOSC Fast Start-up
  4253                           ;	HFOFST = ON, HFINTOSC output and ready status are not delayed by the oscillator stable
      +                           status
  4254                           ;	Timer3 Clock input mux bit
  4255                           ;	T3CMX = PORTC0, T3CKI is on RC0
  4256                           ;	ECCP2 B output mux bit
  4257                           ;	P2BMX = PORTD2, P2B is on RD2
  4258                           ;	MCLR Pin Enable bit
  4259                           ;	MCLRE = INTMCLR, RE3 input pin enabled; MCLR disabled
  4260  300005                     	org	3145733
  4261  300005  3F                 	db	63
  4262                           
  4263                           ;Config register CONFIG4L @ 0x300006
  4264                           ;	Stack Full/Underflow Reset Enable bit
  4265                           ;	STVREN = ON, Stack full/underflow will cause Reset
  4266                           ;	Single-Supply ICSP Enable bit
  4267                           ;	LVP = ON, Single-Supply ICSP enabled if MCLRE is also 1
  4268                           ;	Extended Instruction Set Enable bit
  4269                           ;	XINST = OFF, Instruction set extension and Indexed Addressing mode disabled (Legacy mo
      +                          de)
  4270                           ;	Background Debug
  4271                           ;	DEBUG = 0x1, unprogrammed default
  4272  300006                     	org	3145734
  4273  300006  85                 	db	133
  4274                           
  4275                           ; Padding undefined space
  4276  300007                     	org	3145735
  4277  300007  FF                 	db	255
  4278                           
  4279                           ;Config register CONFIG5L @ 0x300008
  4280                           ;	Code Protection Block 0
  4281                           ;	CP0 = OFF, Block 0 (000800-001FFFh) not code-protected
  4282                           ;	Code Protection Block 1
  4283                           ;	CP1 = OFF, Block 1 (002000-003FFFh) not code-protected
  4284                           ;	Code Protection Block 2
  4285                           ;	CP2 = OFF, Block 2 (004000-005FFFh) not code-protected
  4286                           ;	Code Protection Block 3
  4287                           ;	CP3 = OFF, Block 3 (006000-007FFFh) not code-protected
  4288  300008                     	org	3145736
  4289  300008  0F                 	db	15
  4290                           
  4291                           ;Config register CONFIG5H @ 0x300009
  4292                           ;	Boot Block Code Protection bit
  4293                           ;	CPB = OFF, Boot block (000000-0007FFh) not code-protected
  4294                           ;	Data EEPROM Code Protection bit
  4295                           ;	CPD = OFF, Data EEPROM not code-protected
  4296  300009                     	org	3145737
  4297  300009  C0                 	db	192
  4298                           
  4299                           ;Config register CONFIG6L @ 0x30000A
  4300                           ;	Write Protection Block 0
  4301                           ;	WRT0 = OFF, Block 0 (000800-001FFFh) not write-protected
  4302                           ;	Write Protection Block 1
  4303                           ;	WRT1 = OFF, Block 1 (002000-003FFFh) not write-protected
  4304                           ;	Write Protection Block 2
  4305                           ;	WRT2 = OFF, Block 2 (004000-005FFFh) not write-protected
  4306                           ;	Write Protection Block 3
  4307                           ;	WRT3 = OFF, Block 3 (006000-007FFFh) not write-protected
  4308  30000A                     	org	3145738
  4309  30000A  0F                 	db	15
  4310                           
  4311                           ;Config register CONFIG6H @ 0x30000B
  4312                           ;	Configuration Register Write Protection bit
  4313                           ;	WRTC = OFF, Configuration registers (300000-3000FFh) not write-protected
  4314                           ;	Boot Block Write Protection bit
  4315                           ;	WRTB = OFF, Boot Block (000000-0007FFh) not write-protected
  4316                           ;	Data EEPROM Write Protection bit
  4317                           ;	WRTD = OFF, Data EEPROM not write-protected
  4318  30000B                     	org	3145739
  4319  30000B  E0                 	db	224
  4320                           
  4321                           ;Config register CONFIG7L @ 0x30000C
  4322                           ;	Table Read Protection Block 0
  4323                           ;	EBTR0 = OFF, Block 0 (000800-001FFFh) not protected from table reads executed in other
      +                           blocks
  4324                           ;	Table Read Protection Block 1
  4325                           ;	EBTR1 = OFF, Block 1 (002000-003FFFh) not protected from table reads executed in other
      +                           blocks
  4326                           ;	Table Read Protection Block 2
  4327                           ;	EBTR2 = OFF, Block 2 (004000-005FFFh) not protected from table reads executed in other
      +                           blocks
  4328                           ;	Table Read Protection Block 3
  4329                           ;	EBTR3 = OFF, Block 3 (006000-007FFFh) not protected from table reads executed in other
      +                           blocks
  4330  30000C                     	org	3145740
  4331  30000C  0F                 	db	15
  4332                           
  4333                           ;Config register CONFIG7H @ 0x30000D
  4334                           ;	Boot Block Table Read Protection bit
  4335                           ;	EBTRB = OFF, Boot Block (000000-0007FFh) not protected from table reads executed in ot
      +                          her blocks
  4336  30000D                     	org	3145741
  4337  30000D  40                 	db	64
  4338                           tosu	equ	0xFFF
  4339                           tosh	equ	0xFFE
  4340                           tosl	equ	0xFFD
  4341                           stkptr	equ	0xFFC
  4342                           pclatu	equ	0xFFB
  4343                           pclath	equ	0xFFA
  4344                           pcl	equ	0xFF9
  4345                           tblptru	equ	0xFF8
  4346                           tblptrh	equ	0xFF7
  4347                           tblptrl	equ	0xFF6
  4348                           tablat	equ	0xFF5
  4349                           prodh	equ	0xFF4
  4350                           prodl	equ	0xFF3
  4351                           indf0	equ	0xFEF
  4352                           postinc0	equ	0xFEE
  4353                           postdec0	equ	0xFED
  4354                           preinc0	equ	0xFEC
  4355                           plusw0	equ	0xFEB
  4356                           fsr0h	equ	0xFEA
  4357                           fsr0l	equ	0xFE9
  4358                           wreg	equ	0xFE8
  4359                           indf1	equ	0xFE7
  4360                           postinc1	equ	0xFE6
  4361                           postdec1	equ	0xFE5
  4362                           preinc1	equ	0xFE4
  4363                           plusw1	equ	0xFE3
  4364                           fsr1h	equ	0xFE2
  4365                           fsr1l	equ	0xFE1
  4366                           bsr	equ	0xFE0
  4367                           indf2	equ	0xFDF
  4368                           postinc2	equ	0xFDE
  4369                           postdec2	equ	0xFDD
  4370                           preinc2	equ	0xFDC
  4371                           plusw2	equ	0xFDB
  4372                           fsr2h	equ	0xFDA
  4373                           fsr2l	equ	0xFD9
  4374                           status	equ	0xFD8

Data Sizes:
    Strings     0
    Constant    0
    Data        22
    BSS         4
    Persistent  0
    Stack       0

Auto Spaces:
    Space          Size  Autos    Used
    COMRAM           94     56      82
    BANK0           160      0       0
    BANK1           256      0       0
    BANK2           256      0       0
    BANK3           256      0       0
    BANK4           256      0       0
    BANK5           256      0       0

Pointer List with Targets:

    None.

Critical Paths under _main in COMRAM

    _main->___fldiv
    _display_temp->___awmod
    ___awmod->___awdiv
    ___awdiv->_abs
    ___xxtofl->_channel_conversion
    ___fldiv->___flmul

Critical Paths under _stopit in COMRAM

    None.

Critical Paths under _main in BANK0

    None.

Critical Paths under _stopit in BANK0

    None.

Critical Paths under _main in BANK1

    None.

Critical Paths under _stopit in BANK1

    None.

Critical Paths under _main in BANK2

    None.

Critical Paths under _stopit in BANK2

    None.

Critical Paths under _main in BANK3

    None.

Critical Paths under _stopit in BANK3

    None.

Critical Paths under _main in BANK4

    None.

Critical Paths under _stopit in BANK4

    None.

Critical Paths under _main in BANK5

    None.

Critical Paths under _stopit in BANK5

    None.

Call Graph Tables:

 ---------------------------------------------------------------------------------
 (Depth) Function   	        Calls       Base Space   Used Autos Params    Refs
 ---------------------------------------------------------------------------------
 (0) _main                                                 6     6      0    8685
                                             50 COMRAM     6     6      0
                            ___fladd
                            ___fldiv
                             ___flge
                            ___flmul
                            ___fltol
                           ___xxtofl
                 _channel_conversion
                       _display_temp
                           _init_adc
                     _init_interrupt
                        _init_system
                        _init_timer0
                          _stopmotor
                           _turnleft
                          _turnright
 ---------------------------------------------------------------------------------
 (1) _turnright                                            0     0      0       0
 ---------------------------------------------------------------------------------
 (1) _turnleft                                             0     0      0       0
 ---------------------------------------------------------------------------------
 (1) _stopmotor                                            0     0      0       0
 ---------------------------------------------------------------------------------
 (1) _init_timer0                                          0     0      0       0
 ---------------------------------------------------------------------------------
 (1) _init_system                                          0     0      0       0
 ---------------------------------------------------------------------------------
 (1) _init_interrupt                                       0     0      0       0
 ---------------------------------------------------------------------------------
 (1) _init_adc                                             0     0      0       0
 ---------------------------------------------------------------------------------
 (1) _display_temp                                         5     3      2    1480
                                             18 COMRAM     5     3      2
                            ___awdiv
                            ___awmod
                            ___fltol (ARG)
                                _abs
 ---------------------------------------------------------------------------------
 (2) _abs                                                  4     2      2     218
                                              0 COMRAM     4     2      2
 ---------------------------------------------------------------------------------
 (2) ___awmod                                              6     2      4     600
                                             12 COMRAM     6     2      4
                            ___awdiv (ARG)
                                _abs (ARG)
 ---------------------------------------------------------------------------------
 (2) ___awdiv                                              8     4      4     452
                                              4 COMRAM     8     4      4
                                _abs (ARG)
 ---------------------------------------------------------------------------------
 (1) _channel_conversion                                   9     7      2      45
                                              0 COMRAM     9     7      2
 ---------------------------------------------------------------------------------
 (1) ___xxtofl                                            14    10      4     398
                                              9 COMRAM    14    10      4
                 _channel_conversion (ARG)
 ---------------------------------------------------------------------------------
 (1) ___fltol                                             10     6      4     305
                                              0 COMRAM    10     6      4
 ---------------------------------------------------------------------------------
 (1) ___flmul                                             25    17      8    1896
                                              0 COMRAM    25    17      8
 ---------------------------------------------------------------------------------
 (1) ___flge                                              12     4      8     486
                                              0 COMRAM    12     4      8
 ---------------------------------------------------------------------------------
 (1) ___fldiv                                             25    17      8    1551
                                             25 COMRAM    25    17      8
                            ___flmul (ARG)
 ---------------------------------------------------------------------------------
 (1) ___fladd                                             16     8      8    2388
                                              0 COMRAM    16     8      8
 ---------------------------------------------------------------------------------
 Estimated maximum stack depth 2
 ---------------------------------------------------------------------------------
 (Depth) Function   	        Calls       Base Space   Used Autos Params    Refs
 ---------------------------------------------------------------------------------
 (3) _stopit                                               0     0      0       0
                        i2_stopmotor
 ---------------------------------------------------------------------------------
 (4) i2_stopmotor                                          0     0      0       0
 ---------------------------------------------------------------------------------
 Estimated maximum stack depth 4
 ---------------------------------------------------------------------------------

 Call Graph Graphs:

 _main (ROOT)
   ___fladd
   ___fldiv
     ___flmul (ARG)
   ___flge
   ___flmul
   ___fltol
   ___xxtofl
     _channel_conversion (ARG)
   _channel_conversion
   _display_temp
     ___awdiv
       _abs (ARG)
     ___awmod
       ___awdiv (ARG)
         _abs (ARG)
       _abs (ARG)
     ___fltol (ARG)
     _abs (ARG)
   _init_adc
   _init_interrupt
   _init_system
   _init_timer0
   _stopmotor
   _turnleft
   _turnright

 _stopit (ROOT)
   i2_stopmotor

 Address spaces:
Name               Size   Autos  Total    Cost      Usage
BIGRAM             5FF      0       0      16        0.0%
EEDATA             100      0       0       0        0.0%
BITBANK5           100      0       0      14        0.0%
BANK5              100      0       0      15        0.0%
BITBANK4           100      0       0      12        0.0%
BANK4              100      0       0      13        0.0%
BITBANK3           100      0       0      10        0.0%
BANK3              100      0       0      11        0.0%
BITBANK2           100      0       0       7        0.0%
BANK2              100      0       0       8        0.0%
BITBANK1           100      0       0       5        0.0%
BANK1              100      0       0       6        0.0%
BITBANK0            A0      0       0       3        0.0%
BANK0               A0      0       0       4        0.0%
BITCOMRAM           5E      0       0       0        0.0%
COMRAM              5E     38      52       1       87.2%
BITSFR_1             0      0       0     200        0.0%
SFR_1                0      0       0     200        0.0%
BITSFR               0      0       0     200        0.0%
SFR                  0      0       0     200        0.0%
STACK                0      0       0       2        0.0%
NULL                 0      0       0       0        0.0%
ABS                  0      0      52       9        0.0%
DATA                 0      0      52      17        0.0%
CODE                 0      0       0       0        0.0%


Microchip Technology PIC18 Macro Assembler V2.30 build 20200825195618 
Symbol Table                                                                                   Fri Jan 15 18:52:38 2021

               ___fldiv@aexp 0032                 ___fldiv@bexp 0031                            _k 0051  
               ___fldiv@sign 002A             ??_init_interrupt 0001                           l70 16EC  
                         l73 16E6                           l67 160E                           l92 16A4  
                         l76 16F2                           l79 16E0                           l89 16BC  
               ___awdiv@sign 000A         ??_channel_conversion 0003                          l100 0EC4  
                        l101 0EDA                          l121 11D2                          l130 15CE  
                        l115 10B0                          l117 10D0                          l126 1596  
                        l118 1112                          l128 15C0                          l402 1396  
                        l407 13DC                          l434 12D8                          l381 1550  
                        l368 14A0                          l721 0B24                          l730 0B6A  
                        l732 0BE2                          l724 0AE8                          l812 1646  
                        l733 0BD0                          l901 15D0                          l806 103E  
                        l719 0CC4                          l751 05C6                          l815 164E  
                        l911 15F4                          l903 15DC                          l760 0834  
                        l665 0230                          l761 0822                          l921 15FE  
                        l913 15F6                          l905 15EE                          l682 034A  
                        l674 0500                          l666 021E                          l691 041A  
                        l667 01E4                          l755 092A                          l931 16D4  
                        l923 1600                          l915 15F8                          l907 15F0  
                        l692 0408                          l917 15FA                          l909 15F2  
                        l933 16A6                          l925 16E8                          l758 07BC  
                        l935 1686                          l919 15FC                          l927 16E2  
                        l768 08EC                          l792 0F4A                          l937 168A  
                        l929 16EE                          l795 10A6                          l939 1692  
                        l799 0FE2                ?_display_temp 0013                          _abs 1610  
                        _seg 0039                 ___awmod@sign 0012                          wreg 000FE8  
               ___flmul@aexp 0012                 ___flmul@bexp 0013                 ___flmul@sign 000D  
               ___flmul@temp 0018                 ___flmul@prod 0014                 ___fltol@exp1 000A  
                       l2001 0490                         l2011 04D8                         l2003 04A0  
                       ?_abs 0001                         l2013 04DA                         l2005 04C0  
                       l2101 0B10                         l2015 04E0                         l2007 04C4  
                       l2111 0B50                         l2103 0B12                         l2031 0958  
                       l2023 092C                         l2017 04EE                         l2009 04D2  
                       l2121 0B8C                         l2113 0B5A                         l2105 0B22  
                       l2041 0992                         l2033 0968                         l2025 0938  
                       l2201 05FA                         l2019 04F0                         l2131 0BFE  
                       l2123 0B9A                         l2115 0B68                         l2107 0B34  
                       l2051 09BE                         l2043 0998                         l2035 0978  
                       l2027 0946                         l2211 064A                         l2203 0606  
                       l2141 0C6A                         l2133 0C0C                         l2125 0BC8  
                       l2109 0B4A                         l2117 0B7A                         l2061 09F8  
                       l2053 09CE                         l2045 099E                         l2037 097A  
                       l2029 0948                         l2301 1364                         l2221 068C  
                       l2213 0656                         l2205 0610                         l2151 0CB8  
                       l2143 0C84                         l2135 0C36                         l2119 0B88  
                       l2063 0A0E                         l2055 09DE                         l2047 09AC  
                       l2039 0982                         l2303 1376                         l2231 06EE  
                       l2223 0698                         l2215 0662                         l2207 0626  
                       l2153 0CBA                         l2145 0CA0                         l2129 0BF2  
                       l2137 0C3A                         l2081 0A62                         l2065 0A1E  
                       l2073 0A3E                         l2057 09E0                         l2049 09AE  
                       l2305 1384                         l2241 0784                         l2233 06FA  
                       l2225 06A8                         l2217 0670                         l2209 0632  
                       l2161 0502                         l2321 1228                         l2313 11D4  
                       l2147 0CA4                         l2139 0C54                         l2091 0AB4  
                       l2083 0A7C                         l2075 0A4E                         l2067 0A26  
                       l2059 09E8                         l2307 13D4                         l2251 07DA  
                       l2243 07A2                         l2235 0716                         l2227 06C2  
                       l2219 067C                         l2171 053E                         l2163 050E  
                       l2323 122A                         l2315 11EA                         l2411 0CFE  
                       l2403 0CC6                         l2149 0CB2                         l2093 0AC4  
                       l2085 0A8C                         l2077 0A4E                         l2069 0A2A  
                       l2309 13DA                         l2261 0844                         l2253 07DE  
                       l2245 07AC                         l2237 0740                         l2229 06D2  
                       l2181 0570                         l2173 054E                         l2165 051C  
                       l2325 123A                         l1701 1430                         l2421 0DE0  
                       l2413 0D06                         l2405 0CCA                         l2095 0AD8  
                       l2087 0A9C                         l2271 08A6                         l2263 0850  
                       l2255 07EC                         l2247 07BA                         l2239 0776  
                       l2191 05B0                         l2183 057E                         l2175 0554  
                       l2167 051E                         l2351 12B8                         l2335 1264  
                       l2327 123E                         l2319 11FE                         l1711 146A  
                       l1703 1438                         l2431 0E90                         l2423 0E38  
                       l2415 0D2C                         l2407 0CCE                         l2097 0AE6  
                       l2089 0AAC                         l2281 090E                         l2273 08BA  
                       l2265 085E                         l2257 081A                         l2249 07CC  
                       l2193 05B6                         l2185 0580                         l2177 0564  
                       l2169 052E                         l2353 12C8                         l2345 128C  
                       l2337 126E                         l2329 124C                         l2361 0F14  
                       l1721 1490                         l1713 1472                         l1705 1440  
                       l1801 1168                         l2433 0EC2                         l2425 0E58  
                       l2417 0D54                         l2409 0CD6                         l2099 0AF2  
                       l2291 12DA                         l2283 0910                         l2275 08D4  
                       l2267 0888                         l2195 05D6                         l2187 0590  
                       l2179 056A                         l2347 1298                         l2339 1278  
                       l2371 0F8C                         l2363 0F5A                         l1723 1498  
                       l1715 1474                         l1707 144E                         l1731 14B4  
                       l1803 1176                         l1811 1186                         l2435 0ED2  
                       l2427 0E8A                         l2419 0DAC                         l1901 0186  
                       l1821 0042                         l2293 1308                         l2277 08F0  
                       l2285 0916                         l2269 088C                         l2197 05E6  
                       l2189 05A0                         l2349 12A8                         l2381 1014  
                       l2373 0F98                         l2365 0F70                         l2357 0EF6  
                       l1717 147A                         l1709 1454                         l1741 14E8  
                       l1733 14BC                         l1805 117E                         l1813 11C0  
                       l2437 0EE8                         l2429 0E8E                         l1911 01FE  
                       l1903 01B0                         l1831 007E                         l1823 004E  
                       l2295 1318                         l2287 091A                         l2279 0900  
                       l2391 1052                         l2383 1020                         l2375 0FCA  
                       l2359 0F06                         l1719 1480                         l1751 1524  
                       l1743 14F0                         l1735 14C0                         l1727 14A2  
                       l1815 11C2                         l1921 023E                         l1913 0202  
                       l1905 01CC                         l1841 00AE                         l1833 008E  
                       l1825 005C                         l2297 1346                         l2393 1076  
                       l2385 102E                         l2377 0FCC                         l2369 0F84  
                       l2481 1580                         l1753 152A                         l1745 14F8  
                       l1737 14CE                         l1729 14A6                         l1681 162A  
                       l1931 0280                         l1923 024E                         l1915 0210  
                       l1907 01DC                         l1851 00D8                         l1843 00C0  
                       l1835 0090                         l1827 005E                         l2299 1356  
                       l2395 1086                         l2387 104C                         l2379 0FD8  
                       l1771 156C                         l1763 1554                         l1691 13FC  
                       l1683 13DE                         l1747 1506                         l1755 1530  
                       l1739 14D6                         l1941 02AE                         l1933 028E  
                       l1917 0212                         l1909 01F2                         l1853 00E8  
                       l1861 0112                         l1845 00C2                         l1829 006E  
                       l1837 0098                         l2397 1094                         l2389 104E  
                       l1773 159C                         l1765 1558                         l1693 140A  
                       l1685 13E2                         l1757 1540                         l1749 151C  
                       l1951 031A                         l1943 02B8                         l1935 029A  
                       l1927 0262                         l1919 021C                         l1871 014A  
                       l1863 0122                         l1855 00F8                         l1847 00C8  
                       l1839 00A8                         l2399 1096                         l1775 15B4  
                       l1767 1560                         l1695 1412                         l1687 13F0  
                       l1759 1548                         l1679 1610                         l2479 119A  
                       l1791 10BC                         l1783 10A8                         l1953 032A  
                       l1937 029E                         l1929 0272                         l1945 02BE  
                       l1881 015E                         l1873 014E                         l1865 0134  
                       l1857 0108                         l1849 00D6                         l1697 1416  
                       l1689 13F8                         l1793 10D8                         l1971 03AC  
                       l1963 0384                         l1947 02E4                         l1955 033A  
                       l1939 02AC                         l1891 0172                         l1883 0162  
                       l1875 0152                         l1867 0142                         l1859 010A  
                       l1699 141E                         l1973 03B4                         l1965 038E  
                       l1957 0360                         l1949 0318                         l1981 03D8  
                       l1893 0176                         l1885 0166                         l1877 0156  
                       l1869 0146                         l1797 111A                         l1789 10B8  
                       l1991 042A                         l1983 03DC                         l1975 03B8  
                       l1967 039C                         l1959 0370                         l1895 017A  
                       l1887 016A                         l1879 015A                         l1993 0436  
                       l1985 03EA                         l1977 03C8                         l1969 039E  
                       l1897 017E                         l1889 016E                         l1995 0444  
                       l1987 0400                         l1979 03CA                         l1899 0182  
                       l1997 047E                         l1999 0480                         u2000 0BDE  
                       u2001 0BDA                         u2010 0BF2                         u2011 0BEE  
                       u2020 0C0C                         u2100 0590                         u1300 140A  
                       u2021 0C08                         u2101 058C                         u1301 1406  
                       u2030 0C54                         u2110 05A0                         u1310 1430  
                       u2031 0C50                         u2111 059C                         u1311 142C  
                       u2040 0C84                         u2200 0844                         u2120 05D6  
                       u1320 144E                         u1400 1540                         u2041 0C80  
                       u2201 0840                         u2121 05D2                         u1321 144A  
                       u1401 153C                         u2050 0CB2                         u2210 085E  
                       u2130 05E6                         u1410 15CE                         u1330 146A  
                       u2051 0CAE                         u2211 085A                         u2131 05E2  
                       u1411 15CA                         u1331 1466                         u1500 00F8  
                       u2220 08A6                         u2140 0760                         u2060 051C  
                       u2300 11EA                         u1340 1490                         u1420 1176  
                       u1501 00F4                         u2221 08A2                         u2061 0518  
                       u2301 11E6                         u1341 148C                         u1421 1172  
                       u1510 0134                         u2230 08D4                         u2150 07BA  
                       u2070 052E                         u2310 121E                         u1350 14B4  
                       u1430 11D2                         u1511 0130                         u2231 08D0  
                       u2151 07B6                         u2071 052A                         u1351 14B0  
                       u1431 11CE                         u1600 024E                         u1520 0142  
                       u1440 005C                         u2240 090E                         u2160 07DA  
                       u2080 053E                         u2320 124C                         u2400 0FC6  
                       u1360 14CE                         u1280 162A                         u1601 024A  
                       u1521 013E                         u1441 0058                         u2241 090A  
                       u2161 07D6                         u2145 0756                         u2081 053A  
                       u2321 1248                         u2401 0FC2                         u1361 14CA  
                       u1281 1626                         u1610 0280                         u1530 01B0  
                       u1450 006E                         u2250 1308                         u2170 07EC  
                       u2090 057E                         u2330 1260                         u2410 1010  
                       u1290 13F0                         u1370 14E8                         u1611 027C  
                       u1531 01AC                         u1451 006A                         u2251 1304  
                       u2171 07E8                         u2091 057A                         u2331 125C  
                       u2315 1214                         u2411 100C                         u1291 13EC  
                       u1371 14E4                         u1700 03C8                         u1620 028E  
                       u1540 01C8                         u1460 007E                         u2260 1346  
                       u2180 081A                         u2340 1288                         u2420 102E  
                       u1380 1506                         u2500 0EC2                         u1701 03C4  
                       u1621 028A                         u1541 01C2                         u1461 007A  
                       u2261 1342                         u2181 0816                         u2341 1284  
                       u2421 102A                         u1381 1502                         u2501 0EBE  
                       u1710 03D8                         u1630 02AC                         u1550 01CA  
                       u1470 00C0                         u2270 1364                         u2190 0830  
                       u2350 12A8                         u2430 103E                         u1390 151C  
                       u2510 0ED2                         u1711 03D4                         u1631 02A8  
                       u1471 00BC                         u2271 1360                         u2191 082C  
                       u2351 12A4                         u2431 103A                         u1391 1518  
                       u2511 0ECE                         u1800 04C0                         u1720 03EA  
                       u1640 02E4                         u1560 01F2                         u1480 00D6  
                       u2280 1384                         u2360 12B8                         u2440 104C  
                       u2520 0EE8                         u1801 04BC                         u1721 03E6  
                       u1641 02E0                         u1561 01EE                         u1481 00D2  
                       u2281 1380                         u2361 12B4                         u2441 1048  
                       u2521 0EE4                         u1810 04D2                         u1730 0400  
                       u1650 032A                         u1570 0210                         u1490 00E8  
                       u2290 13D4                         u2450 1086                         u2370 0F06  
                       u1811 04CE                         u1731 03FC                         u1651 0326  
                       u1571 020C                         u1491 00E4                         u2291 13D0  
                       u2451 1082                         u2371 0F02                         u1820 04EE  
                       u1740 0416                         u1660 0360                         u1580 0230  
                       u1900 0A4E                         u2460 1094                         u2380 0F14  
                       u1821 04EA                         u1741 0412                         u1661 035C  
                       u1581 022C                         u1901 0A4A                         u2461 1090  
                       u2381 0F10                         u1750 042A                         u1670 0370  
                       u1590 023E                         u1910 0AC4                         u1830 0946  
                       u2390 0F70                         u2470 0CFE                         u1751 0426  
                       u1671 036C                         u1591 023A                         u1911 0AC0  
                       u1831 0942                         u2391 0F6C                         u2471 0CFA  
                       u1760 0444                         u1680 039C                         u1920 0AE6  
                       u1840 0958                         u2480 0D16                         u1761 0440  
                       u1681 0398                         u1921 0AE2                         u1841 0954  
                       u2537 10C2                         u2481 0D10                         u1770 047E  
                       u1690 03AC                         u1930 0B10                         u1850 0968  
                       u2490 0E8A                         u1771 047A                         u1691 03A8  
                       u1931 0B0C                         u1851 0964                         u2491 0E86  
                       u1780 0490                         u1940 0B34                         u1860 09AC  
                       u1781 048C                         u1941 0B30                         u1861 09A8  
                       u1790 04A0                         u1950 0B4A                         u1870 09BE  
                       u2486 0D18                         u1791 049C                         u1951 0B46  
                       u1871 09BA                         u1960 0B68                         u1880 09CE  
                       u1961 0B64                         u1881 09CA                         u1970 0B88  
                       u1890 0A0E                         u1971 0B84                         u1891 0A0A  
                       u1980 0B9A                         u1981 0B96                         u1990 0BC8  
                       u1991 0BC4                         i2l76 16F8                         i2l86 003A  
                       abs@a 0001                         _main 0CC6          __end_ofi2_stopmotor 16FA  
                       indf2 000FDF                         fsr1l 000FE1                         fsr2l 000FD9  
                       btemp 0053                         prodh 000FF4                         prodl 000FF3  
                       start 003E              ___fldiv@new_exp 002B                 ___param_bank 000000  
                      ??_abs 0003                ___fltol@sign1 0009              __end_of___fladd 0502  
                      ?_main 0001               ??_display_temp 0015              __end_of___fldiv 0CC6  
            __end_of___awdiv 14A2              __end_of___awmod 1552              __end_of___flmul 092C  
            __end_of___fltol 12DA              ___awdiv@divisor 0007              ___awdiv@counter 0009  
                      _TMR0H 000FD7                        _TMR0L 000FD6                        _PORTC 000F82  
                      _TRISC 000F94                        _TRISD 000F95                 ?_init_timer0 0001  
               ?_init_system 0001                        main@i 0035                        tablat 000FF5  
                      ttemp5 0054                        ttemp6 0057                        ttemp7 005B  
                      status 000FD8                        wtemp8 0054              __initialization 1650  
               __end_of_main 0EF4                       ??_main 0033                __activetblptr 000002  
                i2_stopmotor 16F4                       _ADRESH 000FC4                       _ADRESL 000FC3  
           ___awdiv@dividend 0005                       _ANSELC 000F3A                       _ANSELD 000F3B  
                     i2l1581 16F4                       i2l1591 002C                       i2l1583 000A  
                     i2l1593 002E                       i2l1585 0018                       i2l1595 0036  
                     i2l1587 001C                       i2l1589 001E             __end_of___xxtofl 10A8  
                     ___flge 12DA                    ??___fladd 0009                    ??___fldiv 0022  
                  ??___awdiv 0009                    ??___awmod 0011                    ??___flmul 0009  
                  ??___fltol 0005             __end_of_init_adc 16A6             ___awdiv@quotient 000B  
            ___awmod@divisor 000F              ___awmod@counter 0011                       _stopit 0008  
               __pdataCOMRAM 0039                       tblptrh 000FF7                       tblptrl 000FF6  
                     tblptru 000FF8                display_temp@i 0017                display_temp@n 0013  
                 ___flge@ff1 0001                   ___flge@ff2 0005                 ___xxtofl@arg 0014  
               ___xxtofl@exp 0013                 ___xxtofl@val 000A             __end_of_turnleft 16EE  
                 __accesstop 0060      __end_of__initialization 1678         __end_of_display_temp 11D4  
              ___rparam_used 000001                   ___fltol@f1 0001               __pcstackCOMRAM 0001  
       __size_of_init_timer0 0018         __size_of_init_system 0040                      ?___flge 0001  
__size_of_channel_conversion 007E                      ?_stopit 0001                    ?___xxtofl 000A  
                  ?_init_adc 0001           __size_of_stopmotor 0006                      __Hparam 0000  
         __size_of_turnright 0006                      __Lparam 0000              __size_of___flge 0104  
                    ___fladd 0042                      ___fldiv 092C                      ___awdiv 13DE  
                    ___awmod 14A2                      ___flmul 0502                      ___fltol 11D4  
                    __pcinit 1650                      __ramtop 0600                      __ptext0 0CC6  
                    __ptext1 16E2                      __ptext2 16E8                      __ptext3 16EE  
                    __ptext4 16A6                      __ptext5 15D0                      __ptext6 16D4  
                    __ptext7 1686                      __ptext8 10A8                      __ptext9 1610  
                  _T0CONbits 000FD5                    ?_turnleft 0001              __size_of_stopit 0036  
               __size_of_abs 0040                   ??___xxtofl 000E             ___awmod@dividend 000D  
                 _intervalle 004D      __size_of_init_interrupt 000E                 ?i2_stopmotor 0001  
      __size_of_display_temp 012C         end_of_initialization 1678                   ??_init_adc 0001  
              __Lmediumconst 0000                      postdec1 000FE5                      postinc0 000FEE  
                  _PORTBbits 000F81                    _PORTDbits 000F83                   ??_turnleft 0001  
          __end_of_stopmotor 16F4                 _display_temp 10A8                  ___fladd@grs 0010  
              ___xxtofl@sign 0012                    _TRISAbits 000F92                    _TRISBbits 000F93  
          __end_of_turnright 16E8                  ___fldiv@grs 002D                  ___fldiv@rem 0026  
                ___flmul@grs 000E               __end_of___flge 13DE                __pidataCOMRAM 16BE  
             __end_of_stopit 003E          start_initialization 1650                  __end_of_abs 1650  
                   ??___flge 0009                     ??_stopit 0001                    ___fladd@a 0005  
                  ___fladd@b 0001                    ___fldiv@a 001E                    ___fldiv@b 001A  
              ??_init_timer0 0001                    ___flmul@a 0005                    ___flmul@b 0001  
                __pbssCOMRAM 004F               _init_interrupt 16D4                ??_init_system 0001  
          __size_of___xxtofl 01B4         __size_ofi2_stopmotor 0006    channel_conversion@channel 0009  
          __size_of_init_adc 0020                    __pintcode 0008                     ?___fladd 0001  
                   ?___fldiv 001A                     ?___awdiv 0005                     ?___awmod 000D  
                   ?___flmul 0001                     ?___fltol 0001   __end_of_channel_conversion 15D0  
     __end_of_init_interrupt 16E2            __size_of_turnleft 0006          __end_of_init_timer0 16BE  
        __end_of_init_system 1610                     i2u120_40 0018                     i2u120_41 0014  
                   i2u121_40 002C                     i2u121_41 0028                     _RCONbits 000FD0  
                 _ADCON0bits 000FC2                   _ADCON1bits 000FC1                   _ADCON2bits 000FC0  
            ?_init_interrupt 0001                    _stopmotor 16EE                  _INTCON2bits 000FF1  
                _INTCON3bits 000FF0                    copy_data0 1664                    _turnright 16E2  
                   __Hrparam 0000                     __Lrparam 0000             __size_of___fladd 04C0  
           __size_of___fldiv 039A             __size_of___awdiv 00C4             __size_of___awmod 00B0  
           __size_of___flmul 042A             __size_of___fltol 0106                   _ANSELAbits 000F38  
                 _ANSELBbits 000F39                     ___xxtofl 0EF4                  _init_timer0 16A6  
                   __ptext10 14A2                     __ptext11 13DE                     __ptext20 16F4  
                   __ptext12 1552                     __ptext13 0EF4                     __ptext14 11D4  
                   __ptext15 0502                     __ptext16 12DA                     __ptext17 092C  
                   __ptext18 0042                  _init_system 15D0                   ?_stopmotor 0001  
                 ?_turnright 0001                     _init_adc 1686                __size_of_main 022E  
                   _previous 004F                     int$flags 0053                     _turnleft 16E8  
                 _INTCONbits 000FF2                     intlevel2 0000                   _OSCCONbits 000FD3  
 channel_conversion@resultat 0007           _channel_conversion 1552                ??i2_stopmotor 0001  
                ??_stopmotor 0001                ___fladd@signs 000D                  ??_turnright 0001  
        ?_channel_conversion 0001                 ___fladd@aexp 000E                 ___fladd@bexp 000F  
